ccopy_reg
_reconstructor
p0
(cGame
Game
p1
c__builtin__
object
p2
Ntp3
Rp4
(dp5
S'shiplist'
p6
(lp7
g0
(cShip
Cruiser
p8
g2
Ntp9
Rp10
(dp11
S'radarX'
p12
I10
sS'orientation'
p13
S'W'
p14
sS'color'
p15
(I76
I0
I153
tp16
sS'weapon'
p17
(lp18
g0
(cWeapon
HeavyCannon
p19
g2
Ntp20
Rp21
(dp22
S'selected'
p23
I00
sS'rangeY'
p24
I11
sS'rangeX'
p25
I15
sS'damage'
p26
I2
sbasg23
I00
sS'docked'
p27
I00
sS'mines'
p28
I0
sS'name'
p29
S'cruiser'
p30
sS'turnRadius'
p31
I1
sS'health'
p32
(lp33
I2
aI2
aI2
aI2
aI2
asS'armour'
p34
I2
sS'position'
p35
(lp36
(I18
I11
tp37
a(I19
I11
tp38
a(I20
I11
tp39
a(I21
I11
tp40
a(I22
I11
tp41
asS'speed'
p42
I10
sS'healthSum'
p43
I10
sS'size'
p44
I5
sbag0
(g8
g2
Ntp45
Rp46
(dp47
g12
I10
sg13
g14
sg15
g16
sg17
(lp48
g21
asg23
I00
sg27
I00
sg28
I0
sg29
g30
sg31
I1
sg32
(lp49
I2
aI2
aI2
aI2
aI2
asg34
I2
sg35
(lp50
(I24
I11
tp51
a(I25
I11
tp52
a(I26
I11
tp53
a(I27
I11
tp54
a(I28
I11
tp55
asg42
I10
sg43
I10
sg44
I5
sbag0
(cShip
Destroyer
p56
g2
Ntp57
Rp58
(dp59
g43
I4
sg12
I8
sg13
g14
sg15
g16
sg17
(lp60
g0
(cWeapon
Cannon
p61
g2
Ntp62
Rp63
(dp64
g23
I00
sg24
I9
sg25
I12
sg26
I2
sbag0
(cWeapon
Torpedo
p65
g2
Ntp66
Rp67
(dp68
g23
I00
sg24
I10
sg25
I10
sg26
I2
sbasg23
I00
sg27
I00
sg28
I0
sg29
S'destroyer'
p69
sg31
I1
sg32
(lp70
I1
aI1
aI1
aI1
asg35
(lp71
(I25
I12
tp72
a(I26
I12
tp73
a(I27
I12
tp74
a(I28
I12
tp75
asg42
I8
sg34
I1
sg44
I4
sbag0
(g56
g2
Ntp76
Rp77
(dp78
g43
I4
sg12
I8
sg13
g14
sg15
g16
sg17
(lp79
g63
ag67
asg23
I00
sg27
I00
sg28
I0
sg29
g69
sg31
I1
sg32
(lp80
I1
aI1
aI1
aI1
asg35
(lp81
(I25
I13
tp82
a(I26
I13
tp83
a(I27
I13
tp84
a(I28
I13
tp85
asg42
I8
sg34
I1
sg44
I4
sbag0
(g56
g2
Ntp86
Rp87
(dp88
g43
I4
sg12
I8
sg13
g14
sg15
g16
sg17
(lp89
g63
ag67
asg23
I00
sg27
I00
sg28
I0
sg29
g69
sg31
I1
sg32
(lp90
I1
aI1
aI1
aI1
asg35
(lp91
(I25
I14
tp92
a(I26
I14
tp93
a(I27
I14
tp94
a(I28
I14
tp95
asg42
I8
sg34
I1
sg44
I4
sbag0
(cShip
RadarBoat
p96
g2
Ntp97
Rp98
(dp99
g43
I3
sg12
I6
sS'longRadarX'
p100
I12
sg13
g14
sg15
g16
sg17
(lp101
g0
(g61
g2
Ntp102
Rp103
(dp104
g23
I00
sg24
I3
sg25
I5
sg26
I2
sbasg23
I00
sg27
I00
sg28
I0
sS'LongRadarOn'
p105
I00
sg29
S'radar'
p106
sg31
I2
sg32
(lp107
I1
aI1
aI1
asg35
(lp108
(I26
I15
tp109
a(I27
I15
tp110
a(I28
I15
tp111
asg42
I3
sg34
I1
sg44
I3
sbag0
(cShip
TorpedoBoat
p112
g2
Ntp113
Rp114
(dp115
g43
I3
sg12
I6
sg13
g14
sg15
g16
sg17
(lp116
g0
(g61
g2
Ntp117
Rp118
(dp119
g23
I00
sg24
I5
sg25
I5
sg26
I2
sbag0
(g65
g2
Ntp120
Rp121
(dp122
g23
I00
sg24
I10
sg25
I10
sg26
I2
sbasg23
I00
sg27
I00
sg28
I0
sg29
S'torpedo'
p123
sg31
I2
sg32
(lp124
I1
aI1
aI1
asg35
(lp125
(I26
I16
tp126
a(I27
I16
tp127
a(I28
I16
tp128
asg42
I9
sg34
I1
sg44
I3
sbag0
(g112
g2
Ntp129
Rp130
(dp131
g43
I3
sg12
I6
sg13
g14
sg15
g16
sg17
(lp132
g118
ag121
asg23
I00
sg27
I00
sg28
I0
sg29
g123
sg31
I2
sg32
(lp133
I1
aI1
aI1
asg35
(lp134
(I26
I17
tp135
a(I27
I17
tp136
a(I28
I17
tp137
asg42
I9
sg34
I1
sg44
I3
sbag0
(cShip
MineLayer
p138
g2
Ntp139
Rp140
(dp141
g43
I4
sg12
I6
sg13
g14
sg15
g16
sg17
(lp142
g0
(g61
g2
Ntp143
Rp144
(dp145
g23
I00
sg24
I5
sg25
I4
sg26
I2
sbasg23
I00
sg27
I00
sg28
I5
sg29
S'MineLayer'
p146
sg31
I1
sg32
(lp147
I2
aI2
asS'mineList'
p148
(lp149
sg35
(lp150
(I27
I18
tp151
a(I28
I18
tp152
asg42
I6
sg34
I2
sg44
I2
sbag0
(g138
g2
Ntp153
Rp154
(dp155
g43
I4
sg12
I6
sg13
g14
sg15
g16
sg17
(lp156
g144
asg23
I00
sg27
I00
sg28
I5
sg29
g146
sg31
I1
sg32
(lp157
I2
aI2
asg148
(lp158
sg35
(lp159
(I27
I19
tp160
a(I28
I19
tp161
asg42
I6
sg34
I2
sg44
I2
sbag0
(cShip
Kamikaze
p162
g2
Ntp163
Rp164
(dp165
g12
I5
sg13
S'E'
p166
sg15
g16
sg17
(lp167
g0
(cWeapon
Explosive
p168
g2
Ntp169
Rp170
(dp171
g23
I00
sg24
I3
sg25
I3
sg26
I2
sbasg23
I00
sg27
I00
sg28
I0
sg29
S'kamikaze'
p172
sg31
I1
sg32
(lp173
I2
asg35
(lp174
(I28
I20
tp175
asg42
I2
sg34
I2
sg44
I1
sbag0
(g8
g2
Ntp176
Rp177
(dp178
g12
I10
sg13
g166
sg15
(I255
I255
I255
tp179
sg17
(lp180
g0
(g19
g2
Ntp181
Rp182
(dp183
g23
I00
sg24
I11
sg25
I15
sg26
I2
sbasg23
I00
sg27
I00
sg28
I0
sg29
g30
sg31
I1
sg32
(lp184
I2
aI2
aI2
aI2
aI2
asg34
I2
sg35
(lp185
(I5
I10
tp186
a(I4
I10
tp187
a(I3
I10
tp188
a(I2
I10
tp189
a(I1
I10
tp190
asg42
I10
sg43
I10
sg44
I5
sbag0
(g8
g2
Ntp191
Rp192
(dp193
g12
I10
sg13
g166
sg15
g179
sg17
(lp194
g182
asg23
I00
sg27
I00
sg28
I0
sg29
g30
sg31
I1
sg32
(lp195
I2
aI2
aI2
aI2
aI2
asg34
I2
sg35
(lp196
(I5
I11
tp197
a(I4
I11
tp198
a(I3
I11
tp199
a(I2
I11
tp200
a(I1
I11
tp201
asg42
I10
sg43
I10
sg44
I5
sbag0
(g56
g2
Ntp202
Rp203
(dp204
g43
I4
sg12
I8
sg13
g166
sg15
g179
sg17
(lp205
g0
(g61
g2
Ntp206
Rp207
(dp208
g23
I00
sg24
I9
sg25
I12
sg26
I2
sbag0
(g65
g2
Ntp209
Rp210
(dp211
g23
I00
sg24
I10
sg25
I10
sg26
I2
sbasg23
I00
sg27
I00
sg28
I0
sg29
g69
sg31
I1
sg32
(lp212
I1
aI1
aI1
aI1
asg35
(lp213
(I4
I12
tp214
a(I3
I12
tp215
a(I2
I12
tp216
a(I1
I12
tp217
asg42
I8
sg34
I1
sg44
I4
sbag0
(g56
g2
Ntp218
Rp219
(dp220
g43
I4
sg12
I8
sg13
g166
sg15
g179
sg17
(lp221
g207
ag210
asg23
I00
sg27
I00
sg28
I0
sg29
g69
sg31
I1
sg32
(lp222
I1
aI1
aI1
aI1
asg35
(lp223
(I4
I13
tp224
a(I3
I13
tp225
a(I2
I13
tp226
a(I1
I13
tp227
asg42
I8
sg34
I1
sg44
I4
sbag0
(g56
g2
Ntp228
Rp229
(dp230
g43
I4
sg12
I8
sg13
g166
sg15
g179
sg17
(lp231
g207
ag210
asg23
I00
sg27
I00
sg28
I0
sg29
g69
sg31
I1
sg32
(lp232
I1
aI1
aI1
aI1
asg35
(lp233
(I4
I14
tp234
a(I3
I14
tp235
a(I2
I14
tp236
a(I1
I14
tp237
asg42
I8
sg34
I1
sg44
I4
sbag0
(g96
g2
Ntp238
Rp239
(dp240
g43
I3
sg12
I6
sg100
I12
sg13
g166
sg15
g179
sg17
(lp241
g0
(g61
g2
Ntp242
Rp243
(dp244
g23
I00
sg24
I3
sg25
I5
sg26
I2
sbasg23
I00
sg27
I00
sg28
I0
sg105
I00
sg29
g106
sg31
I2
sg32
(lp245
I1
aI1
aI1
asg35
(lp246
(I3
I15
tp247
a(I2
I15
tp248
a(I1
I15
tp249
asg42
I3
sg34
I1
sg44
I3
sbag0
(g112
g2
Ntp250
Rp251
(dp252
g43
I3
sg12
I6
sg13
g166
sg15
g179
sg17
(lp253
g0
(g61
g2
Ntp254
Rp255
(dp256
g23
I00
sg24
I5
sg25
I5
sg26
I2
sbag0
(g65
g2
Ntp257
Rp258
(dp259
g23
I00
sg24
I10
sg25
I10
sg26
I2
sbasg23
I00
sg27
I00
sg28
I0
sg29
g123
sg31
I2
sg32
(lp260
I1
aI1
aI1
asg35
(lp261
(I3
I16
tp262
a(I2
I16
tp263
a(I1
I16
tp264
asg42
I9
sg34
I1
sg44
I3
sbag0
(g112
g2
Ntp265
Rp266
(dp267
g43
I3
sg12
I6
sg13
g166
sg15
g179
sg17
(lp268
g255
ag258
asg23
I00
sg27
I00
sg28
I0
sg29
g123
sg31
I2
sg32
(lp269
I1
aI1
aI1
asg35
(lp270
(I3
I17
tp271
a(I2
I17
tp272
a(I1
I17
tp273
asg42
I9
sg34
I1
sg44
I3
sbag0
(g138
g2
Ntp274
Rp275
(dp276
g43
I4
sg12
I6
sg13
g166
sg15
g179
sg17
(lp277
g0
(g61
g2
Ntp278
Rp279
(dp280
g23
I00
sg24
I5
sg25
I4
sg26
I2
sbasg23
I00
sg27
I00
sg28
I5
sg29
g146
sg31
I1
sg32
(lp281
I2
aI2
asg148
(lp282
sg35
(lp283
(I2
I18
tp284
a(I1
I18
tp285
asg42
I6
sg34
I2
sg44
I2
sbag0
(g138
g2
Ntp286
Rp287
(dp288
g43
I4
sg12
I6
sg13
g166
sg15
g179
sg17
(lp289
g279
asg23
I00
sg27
I00
sg28
I5
sg29
g146
sg31
I1
sg32
(lp290
I2
aI2
asg148
(lp291
sg35
(lp292
(I2
I19
tp293
a(I1
I19
tp294
asg42
I6
sg34
I2
sg44
I2
sbag0
(g162
g2
Ntp295
Rp296
(dp297
g12
I5
sg13
g166
sg15
g179
sg17
(lp298
g0
(g168
g2
Ntp299
Rp300
(dp301
g23
I00
sg24
I3
sg25
I3
sg26
I2
sbasg23
I00
sg27
I00
sg28
I0
sg29
g172
sg31
I1
sg32
(lp302
I2
asg35
(lp303
(I1
I20
tp304
asg42
I2
sg34
I2
sg44
I1
sbasS'gameBoard'
p305
(iBoard
Board
p306
(dp307
S'y'
p308
I-1
sS'x'
p309
I-1
sS'tick'
p310
I1
sS'board'
p311
(lp312
(lp313
g0
(cSquare
Square
p314
g2
Ntp315
Rp316
(dp317
g35
(I0
I0
tp318
sS'sonarVisible'
p319
I00
sS'activeRange'
p320
I00
sS'objectOn'
p321
NsS'visible'
p322
I00
sbag0
(g314
g2
Ntp323
Rp324
(dp325
g35
(I0
I1
tp326
sg319
I00
sg320
I00
sg321
Nsg322
I00
sbag0
(g314
g2
Ntp327
Rp328
(dp329
g35
(I0
I2
tp330
sg319
I00
sg320
I00
sg321
Nsg322
I00
sbag0
(g314
g2
Ntp331
Rp332
(dp333
g35
(I0
I3
tp334
sg319
I00
sg320
I00
sg321
Nsg322
I00
sbag0
(g314
g2
Ntp335
Rp336
(dp337
g35
(I0
I4
tp338
sg319
I00
sg320
I00
sg321
Nsg322
I00
sbag0
(g314
g2
Ntp339
Rp340
(dp341
g35
(I0
I5
tp342
sg319
I00
sg320
I00
sg321
Nsg322
I00
sbag0
(g314
g2
Ntp343
Rp344
(dp345
g35
(I0
I6
tp346
sg319
I00
sg320
I00
sg321
Nsg322
I00
sbag0
(g314
g2
Ntp347
Rp348
(dp349
g35
(I0
I7
tp350
sg319
I00
sg320
I00
sg321
Nsg322
I00
sbag0
(g314
g2
Ntp351
Rp352
(dp353
g35
(I0
I8
tp354
sg319
I00
sg320
I00
sg321
Nsg322
I00
sbag0
(g314
g2
Ntp355
Rp356
(dp357
g35
(I0
I9
tp358
sg319
I00
sg320
I00
sg321
Nsg322
I00
sbag0
(g314
g2
Ntp359
Rp360
(dp361
g35
(I0
I10
tp362
sg319
I00
sg320
I00
sg321
(iBase
Base
p363
(dp364
g15
g179
sg23
I00
sg32
(lp365
I2
aI2
aI2
aI2
aI2
aI2
aI2
aI2
aI2
aI2
asS'positionList'
p366
(lp367
(I0
I10
tp368
a(I0
I11
tp369
a(I0
I12
tp370
a(I0
I13
tp371
a(I0
I14
tp372
a(I0
I15
tp373
a(I0
I16
tp374
a(I0
I17
tp375
a(I0
I18
tp376
a(I0
I19
tp377
asbsg322
I00
sbag0
(g314
g2
Ntp378
Rp379
(dp380
g35
(I0
I11
tp381
sg319
I00
sg320
I00
sg321
g363
sg322
I00
sbag0
(g314
g2
Ntp382
Rp383
(dp384
g35
(I0
I12
tp385
sg319
I00
sg320
I00
sg321
g363
sg322
I00
sbag0
(g314
g2
Ntp386
Rp387
(dp388
g35
(I0
I13
tp389
sg319
I00
sg320
I00
sg321
g363
sg322
I00
sbag0
(g314
g2
Ntp390
Rp391
(dp392
g35
(I0
I14
tp393
sg319
I00
sg320
I00
sg321
g363
sg322
I00
sbag0
(g314
g2
Ntp394
Rp395
(dp396
g35
(I0
I15
tp397
sg319
I00
sg320
I00
sg321
g363
sg322
I00
sbag0
(g314
g2
Ntp398
Rp399
(dp400
g35
(I0
I16
tp401
sg319
I00
sg320
I00
sg321
g363
sg322
I00
sbag0
(g314
g2
Ntp402
Rp403
(dp404
g35
(I0
I17
tp405
sg319
I00
sg320
I00
sg321
g363
sg322
I00
sbag0
(g314
g2
Ntp406
Rp407
(dp408
g35
(I0
I18
tp409
sg319
I00
sg320
I00
sg321
g363
sg322
I00
sbag0
(g314
g2
Ntp410
Rp411
(dp412
g35
(I0
I19
tp413
sg319
I00
sg320
I00
sg321
g363
sg322
I00
sbag0
(g314
g2
Ntp414
Rp415
(dp416
g35
(I0
I20
tp417
sg319
I00
sg320
I00
sg321
Nsg322
I00
sbag0
(g314
g2
Ntp418
Rp419
(dp420
g35
(I0
I21
tp421
sg319
I00
sg320
I00
sg321
Nsg322
I00
sbag0
(g314
g2
Ntp422
Rp423
(dp424
g35
(I0
I22
tp425
sg319
I00
sg320
I00
sg321
Nsg322
I00
sbag0
(g314
g2
Ntp426
Rp427
(dp428
g35
(I0
I23
tp429
sg319
I00
sg320
I00
sg321
Nsg322
I00
sbag0
(g314
g2
Ntp430
Rp431
(dp432
g35
(I0
I24
tp433
sg319
I00
sg320
I00
sg321
Nsg322
I00
sbag0
(g314
g2
Ntp434
Rp435
(dp436
g35
(I0
I25
tp437
sg319
I00
sg320
I00
sg321
Nsg322
I00
sbag0
(g314
g2
Ntp438
Rp439
(dp440
g35
(I0
I26
tp441
sg319
I00
sg320
I00
sg321
Nsg322
I00
sbag0
(g314
g2
Ntp442
Rp443
(dp444
g35
(I0
I27
tp445
sg319
I00
sg320
I00
sg321
Nsg322
I00
sbag0
(g314
g2
Ntp446
Rp447
(dp448
g35
(I0
I28
tp449
sg319
I00
sg320
I00
sg321
Nsg322
I00
sbag0
(g314
g2
Ntp450
Rp451
(dp452
g35
(I0
I29
tp453
sg319
I00
sg320
I00
sg321
Nsg322
I00
sbaa(lp454
g0
(g314
g2
Ntp455
Rp456
(dp457
g35
(I1
I0
tp458
sg319
I00
sg320
I00
sg321
Nsg322
I00
sbag0
(g314
g2
Ntp459
Rp460
(dp461
g35
(I1
I1
tp462
sg319
I00
sg320
I00
sg321
Nsg322
I00
sbag0
(g314
g2
Ntp463
Rp464
(dp465
g35
(I1
I2
tp466
sg319
I00
sg320
I00
sg321
Nsg322
I00
sbag0
(g314
g2
Ntp467
Rp468
(dp469
g35
(I1
I3
tp470
sg319
I00
sg320
I00
sg321
Nsg322
I00
sbag0
(g314
g2
Ntp471
Rp472
(dp473
g35
(I1
I4
tp474
sg319
I00
sg320
I00
sg321
Nsg322
I00
sbag0
(g314
g2
Ntp475
Rp476
(dp477
g35
(I1
I5
tp478
sg319
I00
sg320
I00
sg321
Nsg322
I00
sbag0
(g314
g2
Ntp479
Rp480
(dp481
g35
(I1
I6
tp482
sg319
I00
sg320
I00
sg321
Nsg322
I00
sbag0
(g314
g2
Ntp483
Rp484
(dp485
g35
(I1
I7
tp486
sg319
I00
sg320
I00
sg321
Nsg322
I00
sbag0
(g314
g2
Ntp487
Rp488
(dp489
g35
(I1
I8
tp490
sg319
I00
sg320
I00
sg321
Nsg322
I00
sbag0
(g314
g2
Ntp491
Rp492
(dp493
g35
(I1
I9
tp494
sg319
I00
sg320
I00
sg321
Nsg322
I00
sbag0
(g314
g2
Ntp495
Rp496
(dp497
g35
(I1
I10
tp498
sg319
I00
sg320
I00
sg321
g177
sg322
I00
sbag0
(g314
g2
Ntp499
Rp500
(dp501
g35
(I1
I11
tp502
sg319
I00
sg320
I00
sg321
g192
sg322
I00
sbag0
(g314
g2
Ntp503
Rp504
(dp505
g35
(I1
I12
tp506
sg319
I00
sg320
I00
sg321
g203
sg322
I00
sbag0
(g314
g2
Ntp507
Rp508
(dp509
g35
(I1
I13
tp510
sg319
I00
sg320
I00
sg321
g219
sg322
I00
sbag0
(g314
g2
Ntp511
Rp512
(dp513
g35
(I1
I14
tp514
sg319
I00
sg320
I00
sg321
g229
sg322
I00
sbag0
(g314
g2
Ntp515
Rp516
(dp517
g35
(I1
I15
tp518
sg319
I00
sg320
I00
sg321
g239
sg322
I00
sbag0
(g314
g2
Ntp519
Rp520
(dp521
g35
(I1
I16
tp522
sg319
I00
sg320
I00
sg321
g251
sg322
I00
sbag0
(g314
g2
Ntp523
Rp524
(dp525
g35
(I1
I17
tp526
sg319
I00
sg320
I00
sg321
g266
sg322
I00
sbag0
(g314
g2
Ntp527
Rp528
(dp529
g35
(I1
I18
tp530
sg319
I00
sg320
I00
sg321
g275
sg322
I00
sbag0
(g314
g2
Ntp531
Rp532
(dp533
g35
(I1
I19
tp534
sg319
I00
sg320
I00
sg321
g287
sg322
I00
sbag0
(g314
g2
Ntp535
Rp536
(dp537
g35
(I1
I20
tp538
sg319
I00
sg320
I00
sg321
g296
sg322
I00
sbag0
(g314
g2
Ntp539
Rp540
(dp541
g35
(I1
I21
tp542
sg319
I00
sg320
I00
sg321
Nsg322
I00
sbag0
(g314
g2
Ntp543
Rp544
(dp545
g35
(I1
I22
tp546
sg319
I00
sg320
I00
sg321
Nsg322
I00
sbag0
(g314
g2
Ntp547
Rp548
(dp549
g35
(I1
I23
tp550
sg319
I00
sg320
I00
sg321
Nsg322
I00
sbag0
(g314
g2
Ntp551
Rp552
(dp553
g35
(I1
I24
tp554
sg319
I00
sg320
I00
sg321
Nsg322
I00
sbag0
(g314
g2
Ntp555
Rp556
(dp557
g35
(I1
I25
tp558
sg319
I00
sg320
I00
sg321
Nsg322
I00
sbag0
(g314
g2
Ntp559
Rp560
(dp561
g35
(I1
I26
tp562
sg319
I00
sg320
I00
sg321
Nsg322
I00
sbag0
(g314
g2
Ntp563
Rp564
(dp565
g35
(I1
I27
tp566
sg319
I00
sg320
I00
sg321
Nsg322
I00
sbag0
(g314
g2
Ntp567
Rp568
(dp569
g35
(I1
I28
tp570
sg319
I00
sg320
I00
sg321
Nsg322
I00
sbag0
(g314
g2
Ntp571
Rp572
(dp573
g35
(I1
I29
tp574
sg319
I00
sg320
I00
sg321
Nsg322
I00
sbaa(lp575
g0
(g314
g2
Ntp576
Rp577
(dp578
g35
(I2
I0
tp579
sg319
I00
sg320
I00
sg321
Nsg322
I00
sbag0
(g314
g2
Ntp580
Rp581
(dp582
g35
(I2
I1
tp583
sg319
I00
sg320
I00
sg321
Nsg322
I00
sbag0
(g314
g2
Ntp584
Rp585
(dp586
g35
(I2
I2
tp587
sg319
I00
sg320
I00
sg321
Nsg322
I00
sbag0
(g314
g2
Ntp588
Rp589
(dp590
g35
(I2
I3
tp591
sg319
I00
sg320
I00
sg321
Nsg322
I00
sbag0
(g314
g2
Ntp592
Rp593
(dp594
g35
(I2
I4
tp595
sg319
I00
sg320
I00
sg321
Nsg322
I00
sbag0
(g314
g2
Ntp596
Rp597
(dp598
g35
(I2
I5
tp599
sg319
I00
sg320
I00
sg321
Nsg322
I00
sbag0
(g314
g2
Ntp600
Rp601
(dp602
g35
(I2
I6
tp603
sg319
I00
sg320
I00
sg321
Nsg322
I00
sbag0
(g314
g2
Ntp604
Rp605
(dp606
g35
(I2
I7
tp607
sg319
I00
sg320
I00
sg321
Nsg322
I00
sbag0
(g314
g2
Ntp608
Rp609
(dp610
g35
(I2
I8
tp611
sg319
I00
sg320
I00
sg321
Nsg322
I00
sbag0
(g314
g2
Ntp612
Rp613
(dp614
g35
(I2
I9
tp615
sg319
I00
sg320
I00
sg321
Nsg322
I00
sbag0
(g314
g2
Ntp616
Rp617
(dp618
g35
(I2
I10
tp619
sg319
I00
sg320
I00
sg321
g177
sg322
I00
sbag0
(g314
g2
Ntp620
Rp621
(dp622
g35
(I2
I11
tp623
sg319
I00
sg320
I00
sg321
g192
sg322
I00
sbag0
(g314
g2
Ntp624
Rp625
(dp626
g35
(I2
I12
tp627
sg319
I00
sg320
I00
sg321
g203
sg322
I00
sbag0
(g314
g2
Ntp628
Rp629
(dp630
g35
(I2
I13
tp631
sg319
I00
sg320
I00
sg321
g219
sg322
I00
sbag0
(g314
g2
Ntp632
Rp633
(dp634
g35
(I2
I14
tp635
sg319
I00
sg320
I00
sg321
g229
sg322
I00
sbag0
(g314
g2
Ntp636
Rp637
(dp638
g35
(I2
I15
tp639
sg319
I00
sg320
I00
sg321
g239
sg322
I00
sbag0
(g314
g2
Ntp640
Rp641
(dp642
g35
(I2
I16
tp643
sg319
I00
sg320
I00
sg321
g251
sg322
I00
sbag0
(g314
g2
Ntp644
Rp645
(dp646
g35
(I2
I17
tp647
sg319
I00
sg320
I00
sg321
g266
sg322
I00
sbag0
(g314
g2
Ntp648
Rp649
(dp650
g35
(I2
I18
tp651
sg319
I00
sg320
I00
sg321
g275
sg322
I00
sbag0
(g314
g2
Ntp652
Rp653
(dp654
g35
(I2
I19
tp655
sg319
I00
sg320
I00
sg321
g287
sg322
I00
sbag0
(g314
g2
Ntp656
Rp657
(dp658
g35
(I2
I20
tp659
sg319
I00
sg320
I00
sg321
Nsg322
I00
sbag0
(g314
g2
Ntp660
Rp661
(dp662
g35
(I2
I21
tp663
sg319
I00
sg320
I00
sg321
Nsg322
I00
sbag0
(g314
g2
Ntp664
Rp665
(dp666
g35
(I2
I22
tp667
sg319
I00
sg320
I00
sg321
Nsg322
I00
sbag0
(g314
g2
Ntp668
Rp669
(dp670
g35
(I2
I23
tp671
sg319
I00
sg320
I00
sg321
Nsg322
I00
sbag0
(g314
g2
Ntp672
Rp673
(dp674
g35
(I2
I24
tp675
sg319
I00
sg320
I00
sg321
Nsg322
I00
sbag0
(g314
g2
Ntp676
Rp677
(dp678
g35
(I2
I25
tp679
sg319
I00
sg320
I00
sg321
Nsg322
I00
sbag0
(g314
g2
Ntp680
Rp681
(dp682
g35
(I2
I26
tp683
sg319
I00
sg320
I00
sg321
Nsg322
I00
sbag0
(g314
g2
Ntp684
Rp685
(dp686
g35
(I2
I27
tp687
sg319
I00
sg320
I00
sg321
Nsg322
I00
sbag0
(g314
g2
Ntp688
Rp689
(dp690
g35
(I2
I28
tp691
sg319
I00
sg320
I00
sg321
Nsg322
I00
sbag0
(g314
g2
Ntp692
Rp693
(dp694
g35
(I2
I29
tp695
sg319
I00
sg320
I00
sg321
Nsg322
I00
sbaa(lp696
g0
(g314
g2
Ntp697
Rp698
(dp699
g35
(I3
I0
tp700
sg319
I00
sg320
I00
sg321
Nsg322
I00
sbag0
(g314
g2
Ntp701
Rp702
(dp703
g35
(I3
I1
tp704
sg319
I00
sg320
I00
sg321
Nsg322
I00
sbag0
(g314
g2
Ntp705
Rp706
(dp707
g35
(I3
I2
tp708
sg319
I00
sg320
I00
sg321
Nsg322
I00
sbag0
(g314
g2
Ntp709
Rp710
(dp711
g35
(I3
I3
tp712
sg319
I00
sg320
I00
sg321
Nsg322
I00
sbag0
(g314
g2
Ntp713
Rp714
(dp715
g35
(I3
I4
tp716
sg319
I00
sg320
I00
sg321
Nsg322
I00
sbag0
(g314
g2
Ntp717
Rp718
(dp719
g35
(I3
I5
tp720
sg319
I00
sg320
I00
sg321
Nsg322
I00
sbag0
(g314
g2
Ntp721
Rp722
(dp723
g35
(I3
I6
tp724
sg319
I00
sg320
I00
sg321
Nsg322
I00
sbag0
(g314
g2
Ntp725
Rp726
(dp727
g35
(I3
I7
tp728
sg319
I00
sg320
I00
sg321
Nsg322
I00
sbag0
(g314
g2
Ntp729
Rp730
(dp731
g35
(I3
I8
tp732
sg319
I00
sg320
I00
sg321
Nsg322
I00
sbag0
(g314
g2
Ntp733
Rp734
(dp735
g35
(I3
I9
tp736
sg319
I00
sg320
I00
sg321
Nsg322
I00
sbag0
(g314
g2
Ntp737
Rp738
(dp739
g35
(I3
I10
tp740
sg319
I00
sg320
I00
sg321
g177
sg322
I00
sbag0
(g314
g2
Ntp741
Rp742
(dp743
g35
(I3
I11
tp744
sg319
I00
sg320
I00
sg321
g192
sg322
I00
sbag0
(g314
g2
Ntp745
Rp746
(dp747
g35
(I3
I12
tp748
sg319
I00
sg320
I00
sg321
g203
sg322
I00
sbag0
(g314
g2
Ntp749
Rp750
(dp751
g35
(I3
I13
tp752
sg319
I00
sg320
I00
sg321
g219
sg322
I00
sbag0
(g314
g2
Ntp753
Rp754
(dp755
g35
(I3
I14
tp756
sg319
I00
sg320
I00
sg321
g229
sg322
I00
sbag0
(g314
g2
Ntp757
Rp758
(dp759
g35
(I3
I15
tp760
sg319
I00
sg320
I00
sg321
g239
sg322
I00
sbag0
(g314
g2
Ntp761
Rp762
(dp763
g35
(I3
I16
tp764
sg319
I00
sg320
I00
sg321
g251
sg322
I00
sbag0
(g314
g2
Ntp765
Rp766
(dp767
g35
(I3
I17
tp768
sg319
I00
sg320
I00
sg321
g266
sg322
I00
sbag0
(g314
g2
Ntp769
Rp770
(dp771
g35
(I3
I18
tp772
sg319
I00
sg320
I00
sg321
Nsg322
I00
sbag0
(g314
g2
Ntp773
Rp774
(dp775
g35
(I3
I19
tp776
sg319
I00
sg320
I00
sg321
Nsg322
I00
sbag0
(g314
g2
Ntp777
Rp778
(dp779
g35
(I3
I20
tp780
sg319
I00
sg320
I00
sg321
Nsg322
I00
sbag0
(g314
g2
Ntp781
Rp782
(dp783
g35
(I3
I21
tp784
sg319
I00
sg320
I00
sg321
Nsg322
I00
sbag0
(g314
g2
Ntp785
Rp786
(dp787
g35
(I3
I22
tp788
sg319
I00
sg320
I00
sg321
Nsg322
I00
sbag0
(g314
g2
Ntp789
Rp790
(dp791
g35
(I3
I23
tp792
sg319
I00
sg320
I00
sg321
Nsg322
I00
sbag0
(g314
g2
Ntp793
Rp794
(dp795
g35
(I3
I24
tp796
sg319
I00
sg320
I00
sg321
Nsg322
I00
sbag0
(g314
g2
Ntp797
Rp798
(dp799
g35
(I3
I25
tp800
sg319
I00
sg320
I00
sg321
Nsg322
I00
sbag0
(g314
g2
Ntp801
Rp802
(dp803
g35
(I3
I26
tp804
sg319
I00
sg320
I00
sg321
Nsg322
I00
sbag0
(g314
g2
Ntp805
Rp806
(dp807
g35
(I3
I27
tp808
sg319
I00
sg320
I00
sg321
Nsg322
I00
sbag0
(g314
g2
Ntp809
Rp810
(dp811
g35
(I3
I28
tp812
sg319
I00
sg320
I00
sg321
Nsg322
I00
sbag0
(g314
g2
Ntp813
Rp814
(dp815
g35
(I3
I29
tp816
sg319
I00
sg320
I00
sg321
Nsg322
I00
sbaa(lp817
g0
(g314
g2
Ntp818
Rp819
(dp820
g35
(I4
I0
tp821
sg319
I00
sg320
I00
sg321
Nsg322
I00
sbag0
(g314
g2
Ntp822
Rp823
(dp824
g35
(I4
I1
tp825
sg319
I00
sg320
I00
sg321
Nsg322
I00
sbag0
(g314
g2
Ntp826
Rp827
(dp828
g35
(I4
I2
tp829
sg319
I00
sg320
I00
sg321
Nsg322
I00
sbag0
(g314
g2
Ntp830
Rp831
(dp832
g35
(I4
I3
tp833
sg319
I00
sg320
I00
sg321
Nsg322
I00
sbag0
(g314
g2
Ntp834
Rp835
(dp836
g35
(I4
I4
tp837
sg319
I00
sg320
I00
sg321
Nsg322
I00
sbag0
(g314
g2
Ntp838
Rp839
(dp840
g35
(I4
I5
tp841
sg319
I00
sg320
I00
sg321
Nsg322
I00
sbag0
(g314
g2
Ntp842
Rp843
(dp844
g35
(I4
I6
tp845
sg319
I00
sg320
I00
sg321
Nsg322
I00
sbag0
(g314
g2
Ntp846
Rp847
(dp848
g35
(I4
I7
tp849
sg319
I00
sg320
I00
sg321
Nsg322
I00
sbag0
(g314
g2
Ntp850
Rp851
(dp852
g35
(I4
I8
tp853
sg319
I00
sg320
I00
sg321
Nsg322
I00
sbag0
(g314
g2
Ntp854
Rp855
(dp856
g35
(I4
I9
tp857
sg319
I00
sg320
I00
sg321
Nsg322
I00
sbag0
(g314
g2
Ntp858
Rp859
(dp860
g35
(I4
I10
tp861
sg319
I00
sg320
I00
sg321
g177
sg322
I00
sbag0
(g314
g2
Ntp862
Rp863
(dp864
g35
(I4
I11
tp865
sg319
I00
sg320
I00
sg321
g192
sg322
I00
sbag0
(g314
g2
Ntp866
Rp867
(dp868
g35
(I4
I12
tp869
sg319
I00
sg320
I00
sg321
g203
sg322
I00
sbag0
(g314
g2
Ntp870
Rp871
(dp872
g35
(I4
I13
tp873
sg319
I00
sg320
I00
sg321
g219
sg322
I00
sbag0
(g314
g2
Ntp874
Rp875
(dp876
g35
(I4
I14
tp877
sg319
I00
sg320
I00
sg321
g229
sg322
I00
sbag0
(g314
g2
Ntp878
Rp879
(dp880
g35
(I4
I15
tp881
sg319
I00
sg320
I00
sg321
Nsg322
I00
sbag0
(g314
g2
Ntp882
Rp883
(dp884
g35
(I4
I16
tp885
sg319
I00
sg320
I00
sg321
Nsg322
I00
sbag0
(g314
g2
Ntp886
Rp887
(dp888
g35
(I4
I17
tp889
sg319
I00
sg320
I00
sg321
Nsg322
I00
sbag0
(g314
g2
Ntp890
Rp891
(dp892
g35
(I4
I18
tp893
sg319
I00
sg320
I00
sg321
Nsg322
I00
sbag0
(g314
g2
Ntp894
Rp895
(dp896
g35
(I4
I19
tp897
sg319
I00
sg320
I00
sg321
Nsg322
I00
sbag0
(g314
g2
Ntp898
Rp899
(dp900
g35
(I4
I20
tp901
sg319
I00
sg320
I00
sg321
Nsg322
I00
sbag0
(g314
g2
Ntp902
Rp903
(dp904
g35
(I4
I21
tp905
sg319
I00
sg320
I00
sg321
Nsg322
I00
sbag0
(g314
g2
Ntp906
Rp907
(dp908
g35
(I4
I22
tp909
sg319
I00
sg320
I00
sg321
Nsg322
I00
sbag0
(g314
g2
Ntp910
Rp911
(dp912
g35
(I4
I23
tp913
sg319
I00
sg320
I00
sg321
Nsg322
I00
sbag0
(g314
g2
Ntp914
Rp915
(dp916
g35
(I4
I24
tp917
sg319
I00
sg320
I00
sg321
Nsg322
I00
sbag0
(g314
g2
Ntp918
Rp919
(dp920
g35
(I4
I25
tp921
sg319
I00
sg320
I00
sg321
Nsg322
I00
sbag0
(g314
g2
Ntp922
Rp923
(dp924
g35
(I4
I26
tp925
sg319
I00
sg320
I00
sg321
Nsg322
I00
sbag0
(g314
g2
Ntp926
Rp927
(dp928
g35
(I4
I27
tp929
sg319
I00
sg320
I00
sg321
Nsg322
I00
sbag0
(g314
g2
Ntp930
Rp931
(dp932
g35
(I4
I28
tp933
sg319
I00
sg320
I00
sg321
Nsg322
I00
sbag0
(g314
g2
Ntp934
Rp935
(dp936
g35
(I4
I29
tp937
sg319
I00
sg320
I00
sg321
Nsg322
I00
sbaa(lp938
g0
(g314
g2
Ntp939
Rp940
(dp941
g35
(I5
I0
tp942
sg319
I00
sg320
I00
sg321
Nsg322
I00
sbag0
(g314
g2
Ntp943
Rp944
(dp945
g35
(I5
I1
tp946
sg319
I00
sg320
I00
sg321
Nsg322
I00
sbag0
(g314
g2
Ntp947
Rp948
(dp949
g35
(I5
I2
tp950
sg319
I00
sg320
I00
sg321
Nsg322
I00
sbag0
(g314
g2
Ntp951
Rp952
(dp953
g35
(I5
I3
tp954
sg319
I00
sg320
I00
sg321
Nsg322
I00
sbag0
(g314
g2
Ntp955
Rp956
(dp957
g35
(I5
I4
tp958
sg319
I00
sg320
I00
sg321
Nsg322
I00
sbag0
(g314
g2
Ntp959
Rp960
(dp961
g35
(I5
I5
tp962
sg319
I00
sg320
I00
sg321
Nsg322
I00
sbag0
(g314
g2
Ntp963
Rp964
(dp965
g35
(I5
I6
tp966
sg319
I00
sg320
I00
sg321
Nsg322
I00
sbag0
(g314
g2
Ntp967
Rp968
(dp969
g35
(I5
I7
tp970
sg319
I00
sg320
I00
sg321
Nsg322
I00
sbag0
(g314
g2
Ntp971
Rp972
(dp973
g35
(I5
I8
tp974
sg319
I00
sg320
I00
sg321
Nsg322
I00
sbag0
(g314
g2
Ntp975
Rp976
(dp977
g35
(I5
I9
tp978
sg319
I00
sg320
I00
sg321
Nsg322
I00
sbag0
(g314
g2
Ntp979
Rp980
(dp981
g35
(I5
I10
tp982
sg319
I00
sg320
I00
sg321
g177
sg322
I00
sbag0
(g314
g2
Ntp983
Rp984
(dp985
g35
(I5
I11
tp986
sg319
I00
sg320
I00
sg321
g192
sg322
I00
sbag0
(g314
g2
Ntp987
Rp988
(dp989
g35
(I5
I12
tp990
sg319
I00
sg320
I00
sg321
Nsg322
I00
sbag0
(g314
g2
Ntp991
Rp992
(dp993
g35
(I5
I13
tp994
sg319
I00
sg320
I00
sg321
Nsg322
I00
sbag0
(g314
g2
Ntp995
Rp996
(dp997
g35
(I5
I14
tp998
sg319
I00
sg320
I00
sg321
Nsg322
I00
sbag0
(g314
g2
Ntp999
Rp1000
(dp1001
g35
(I5
I15
tp1002
sg319
I00
sg320
I00
sg321
Nsg322
I00
sbag0
(g314
g2
Ntp1003
Rp1004
(dp1005
g35
(I5
I16
tp1006
sg319
I00
sg320
I00
sg321
Nsg322
I00
sbag0
(g314
g2
Ntp1007
Rp1008
(dp1009
g35
(I5
I17
tp1010
sg319
I00
sg320
I00
sg321
Nsg322
I00
sbag0
(g314
g2
Ntp1011
Rp1012
(dp1013
g35
(I5
I18
tp1014
sg319
I00
sg320
I00
sg321
Nsg322
I00
sbag0
(g314
g2
Ntp1015
Rp1016
(dp1017
g35
(I5
I19
tp1018
sg319
I00
sg320
I00
sg321
Nsg322
I00
sbag0
(g314
g2
Ntp1019
Rp1020
(dp1021
g35
(I5
I20
tp1022
sg319
I00
sg320
I00
sg321
Nsg322
I00
sbag0
(g314
g2
Ntp1023
Rp1024
(dp1025
g35
(I5
I21
tp1026
sg319
I00
sg320
I00
sg321
Nsg322
I00
sbag0
(g314
g2
Ntp1027
Rp1028
(dp1029
g35
(I5
I22
tp1030
sg319
I00
sg320
I00
sg321
Nsg322
I00
sbag0
(g314
g2
Ntp1031
Rp1032
(dp1033
g35
(I5
I23
tp1034
sg319
I00
sg320
I00
sg321
Nsg322
I00
sbag0
(g314
g2
Ntp1035
Rp1036
(dp1037
g35
(I5
I24
tp1038
sg319
I00
sg320
I00
sg321
Nsg322
I00
sbag0
(g314
g2
Ntp1039
Rp1040
(dp1041
g35
(I5
I25
tp1042
sg319
I00
sg320
I00
sg321
Nsg322
I00
sbag0
(g314
g2
Ntp1043
Rp1044
(dp1045
g35
(I5
I26
tp1046
sg319
I00
sg320
I00
sg321
Nsg322
I00
sbag0
(g314
g2
Ntp1047
Rp1048
(dp1049
g35
(I5
I27
tp1050
sg319
I00
sg320
I00
sg321
Nsg322
I00
sbag0
(g314
g2
Ntp1051
Rp1052
(dp1053
g35
(I5
I28
tp1054
sg319
I00
sg320
I00
sg321
Nsg322
I00
sbag0
(g314
g2
Ntp1055
Rp1056
(dp1057
g35
(I5
I29
tp1058
sg319
I00
sg320
I00
sg321
Nsg322
I00
sbaa(lp1059
g0
(g314
g2
Ntp1060
Rp1061
(dp1062
g35
(I6
I0
tp1063
sg319
I00
sg320
I00
sg321
Nsg322
I00
sbag0
(g314
g2
Ntp1064
Rp1065
(dp1066
g35
(I6
I1
tp1067
sg319
I00
sg320
I00
sg321
Nsg322
I00
sbag0
(g314
g2
Ntp1068
Rp1069
(dp1070
g35
(I6
I2
tp1071
sg319
I00
sg320
I00
sg321
Nsg322
I00
sbag0
(g314
g2
Ntp1072
Rp1073
(dp1074
g35
(I6
I3
tp1075
sg319
I00
sg320
I00
sg321
Nsg322
I00
sbag0
(g314
g2
Ntp1076
Rp1077
(dp1078
g35
(I6
I4
tp1079
sg319
I00
sg320
I00
sg321
Nsg322
I00
sbag0
(g314
g2
Ntp1080
Rp1081
(dp1082
g35
(I6
I5
tp1083
sg319
I00
sg320
I00
sg321
Nsg322
I00
sbag0
(g314
g2
Ntp1084
Rp1085
(dp1086
g35
(I6
I6
tp1087
sg319
I00
sg320
I00
sg321
Nsg322
I00
sbag0
(g314
g2
Ntp1088
Rp1089
(dp1090
g35
(I6
I7
tp1091
sg319
I00
sg320
I00
sg321
Nsg322
I00
sbag0
(g314
g2
Ntp1092
Rp1093
(dp1094
g35
(I6
I8
tp1095
sg319
I00
sg320
I00
sg321
Nsg322
I00
sbag0
(g314
g2
Ntp1096
Rp1097
(dp1098
g35
(I6
I9
tp1099
sg319
I00
sg320
I00
sg321
Nsg322
I00
sbag0
(g314
g2
Ntp1100
Rp1101
(dp1102
g35
(I6
I10
tp1103
sg319
I00
sg320
I00
sg321
Nsg322
I00
sbag0
(g314
g2
Ntp1104
Rp1105
(dp1106
g35
(I6
I11
tp1107
sg319
I00
sg320
I00
sg321
Nsg322
I00
sbag0
(g314
g2
Ntp1108
Rp1109
(dp1110
g35
(I6
I12
tp1111
sg319
I00
sg320
I00
sg321
Nsg322
I00
sbag0
(g314
g2
Ntp1112
Rp1113
(dp1114
g35
(I6
I13
tp1115
sg319
I00
sg320
I00
sg321
Nsg322
I00
sbag0
(g314
g2
Ntp1116
Rp1117
(dp1118
g35
(I6
I14
tp1119
sg319
I00
sg320
I00
sg321
Nsg322
I00
sbag0
(g314
g2
Ntp1120
Rp1121
(dp1122
g35
(I6
I15
tp1123
sg319
I00
sg320
I00
sg321
Nsg322
I00
sbag0
(g314
g2
Ntp1124
Rp1125
(dp1126
g35
(I6
I16
tp1127
sg319
I00
sg320
I00
sg321
Nsg322
I00
sbag0
(g314
g2
Ntp1128
Rp1129
(dp1130
g35
(I6
I17
tp1131
sg319
I00
sg320
I00
sg321
Nsg322
I00
sbag0
(g314
g2
Ntp1132
Rp1133
(dp1134
g35
(I6
I18
tp1135
sg319
I00
sg320
I00
sg321
Nsg322
I00
sbag0
(g314
g2
Ntp1136
Rp1137
(dp1138
g35
(I6
I19
tp1139
sg319
I00
sg320
I00
sg321
Nsg322
I00
sbag0
(g314
g2
Ntp1140
Rp1141
(dp1142
g35
(I6
I20
tp1143
sg319
I00
sg320
I00
sg321
Nsg322
I00
sbag0
(g314
g2
Ntp1144
Rp1145
(dp1146
g35
(I6
I21
tp1147
sg319
I00
sg320
I00
sg321
Nsg322
I00
sbag0
(g314
g2
Ntp1148
Rp1149
(dp1150
g35
(I6
I22
tp1151
sg319
I00
sg320
I00
sg321
Nsg322
I00
sbag0
(g314
g2
Ntp1152
Rp1153
(dp1154
g35
(I6
I23
tp1155
sg319
I00
sg320
I00
sg321
Nsg322
I00
sbag0
(g314
g2
Ntp1156
Rp1157
(dp1158
g35
(I6
I24
tp1159
sg319
I00
sg320
I00
sg321
Nsg322
I00
sbag0
(g314
g2
Ntp1160
Rp1161
(dp1162
g35
(I6
I25
tp1163
sg319
I00
sg320
I00
sg321
Nsg322
I00
sbag0
(g314
g2
Ntp1164
Rp1165
(dp1166
g35
(I6
I26
tp1167
sg319
I00
sg320
I00
sg321
Nsg322
I00
sbag0
(g314
g2
Ntp1168
Rp1169
(dp1170
g35
(I6
I27
tp1171
sg319
I00
sg320
I00
sg321
Nsg322
I00
sbag0
(g314
g2
Ntp1172
Rp1173
(dp1174
g35
(I6
I28
tp1175
sg319
I00
sg320
I00
sg321
Nsg322
I00
sbag0
(g314
g2
Ntp1176
Rp1177
(dp1178
g35
(I6
I29
tp1179
sg319
I00
sg320
I00
sg321
Nsg322
I00
sbaa(lp1180
g0
(g314
g2
Ntp1181
Rp1182
(dp1183
g35
(I7
I0
tp1184
sg319
I00
sg320
I00
sg321
Nsg322
I00
sbag0
(g314
g2
Ntp1185
Rp1186
(dp1187
g35
(I7
I1
tp1188
sg319
I00
sg320
I00
sg321
Nsg322
I00
sbag0
(g314
g2
Ntp1189
Rp1190
(dp1191
g35
(I7
I2
tp1192
sg319
I00
sg320
I00
sg321
Nsg322
I00
sbag0
(g314
g2
Ntp1193
Rp1194
(dp1195
g35
(I7
I3
tp1196
sg319
I00
sg320
I00
sg321
Nsg322
I00
sbag0
(g314
g2
Ntp1197
Rp1198
(dp1199
g35
(I7
I4
tp1200
sg319
I00
sg320
I00
sg321
Nsg322
I00
sbag0
(g314
g2
Ntp1201
Rp1202
(dp1203
g35
(I7
I5
tp1204
sg319
I00
sg320
I00
sg321
Nsg322
I00
sbag0
(g314
g2
Ntp1205
Rp1206
(dp1207
g35
(I7
I6
tp1208
sg319
I00
sg320
I00
sg321
Nsg322
I00
sbag0
(g314
g2
Ntp1209
Rp1210
(dp1211
g35
(I7
I7
tp1212
sg319
I00
sg320
I00
sg321
Nsg322
I00
sbag0
(g314
g2
Ntp1213
Rp1214
(dp1215
g35
(I7
I8
tp1216
sg319
I00
sg320
I00
sg321
Nsg322
I00
sbag0
(g314
g2
Ntp1217
Rp1218
(dp1219
g35
(I7
I9
tp1220
sg319
I00
sg320
I00
sg321
Nsg322
I00
sbag0
(g314
g2
Ntp1221
Rp1222
(dp1223
g35
(I7
I10
tp1224
sg319
I00
sg320
I00
sg321
Nsg322
I00
sbag0
(g314
g2
Ntp1225
Rp1226
(dp1227
g35
(I7
I11
tp1228
sg319
I00
sg320
I00
sg321
Nsg322
I00
sbag0
(g314
g2
Ntp1229
Rp1230
(dp1231
g35
(I7
I12
tp1232
sg319
I00
sg320
I00
sg321
Nsg322
I00
sbag0
(g314
g2
Ntp1233
Rp1234
(dp1235
g35
(I7
I13
tp1236
sg319
I00
sg320
I00
sg321
Nsg322
I00
sbag0
(g314
g2
Ntp1237
Rp1238
(dp1239
g35
(I7
I14
tp1240
sg319
I00
sg320
I00
sg321
Nsg322
I00
sbag0
(g314
g2
Ntp1241
Rp1242
(dp1243
g35
(I7
I15
tp1244
sg319
I00
sg320
I00
sg321
Nsg322
I00
sbag0
(g314
g2
Ntp1245
Rp1246
(dp1247
g35
(I7
I16
tp1248
sg319
I00
sg320
I00
sg321
Nsg322
I00
sbag0
(g314
g2
Ntp1249
Rp1250
(dp1251
g35
(I7
I17
tp1252
sg319
I00
sg320
I00
sg321
Nsg322
I00
sbag0
(g314
g2
Ntp1253
Rp1254
(dp1255
g35
(I7
I18
tp1256
sg319
I00
sg320
I00
sg321
Nsg322
I00
sbag0
(g314
g2
Ntp1257
Rp1258
(dp1259
g35
(I7
I19
tp1260
sg319
I00
sg320
I00
sg321
Nsg322
I00
sbag0
(g314
g2
Ntp1261
Rp1262
(dp1263
g35
(I7
I20
tp1264
sg319
I00
sg320
I00
sg321
Nsg322
I00
sbag0
(g314
g2
Ntp1265
Rp1266
(dp1267
g35
(I7
I21
tp1268
sg319
I00
sg320
I00
sg321
Nsg322
I00
sbag0
(g314
g2
Ntp1269
Rp1270
(dp1271
g35
(I7
I22
tp1272
sg319
I00
sg320
I00
sg321
Nsg322
I00
sbag0
(g314
g2
Ntp1273
Rp1274
(dp1275
g35
(I7
I23
tp1276
sg319
I00
sg320
I00
sg321
Nsg322
I00
sbag0
(g314
g2
Ntp1277
Rp1278
(dp1279
g35
(I7
I24
tp1280
sg319
I00
sg320
I00
sg321
Nsg322
I00
sbag0
(g314
g2
Ntp1281
Rp1282
(dp1283
g35
(I7
I25
tp1284
sg319
I00
sg320
I00
sg321
Nsg322
I00
sbag0
(g314
g2
Ntp1285
Rp1286
(dp1287
g35
(I7
I26
tp1288
sg319
I00
sg320
I00
sg321
Nsg322
I00
sbag0
(g314
g2
Ntp1289
Rp1290
(dp1291
g35
(I7
I27
tp1292
sg319
I00
sg320
I00
sg321
Nsg322
I00
sbag0
(g314
g2
Ntp1293
Rp1294
(dp1295
g35
(I7
I28
tp1296
sg319
I00
sg320
I00
sg321
Nsg322
I00
sbag0
(g314
g2
Ntp1297
Rp1298
(dp1299
g35
(I7
I29
tp1300
sg319
I00
sg320
I00
sg321
Nsg322
I00
sbaa(lp1301
g0
(g314
g2
Ntp1302
Rp1303
(dp1304
g35
(I8
I0
tp1305
sg319
I00
sg320
I00
sg321
Nsg322
I00
sbag0
(g314
g2
Ntp1306
Rp1307
(dp1308
g35
(I8
I1
tp1309
sg319
I00
sg320
I00
sg321
Nsg322
I00
sbag0
(g314
g2
Ntp1310
Rp1311
(dp1312
g35
(I8
I2
tp1313
sg319
I00
sg320
I00
sg321
Nsg322
I00
sbag0
(g314
g2
Ntp1314
Rp1315
(dp1316
g35
(I8
I3
tp1317
sg319
I00
sg320
I00
sg321
Nsg322
I00
sbag0
(g314
g2
Ntp1318
Rp1319
(dp1320
g35
(I8
I4
tp1321
sg319
I00
sg320
I00
sg321
Nsg322
I00
sbag0
(g314
g2
Ntp1322
Rp1323
(dp1324
g35
(I8
I5
tp1325
sg319
I00
sg320
I00
sg321
Nsg322
I00
sbag0
(g314
g2
Ntp1326
Rp1327
(dp1328
g35
(I8
I6
tp1329
sg319
I00
sg320
I00
sg321
Nsg322
I00
sbag0
(g314
g2
Ntp1330
Rp1331
(dp1332
g35
(I8
I7
tp1333
sg319
I00
sg320
I00
sg321
Nsg322
I00
sbag0
(g314
g2
Ntp1334
Rp1335
(dp1336
g35
(I8
I8
tp1337
sg319
I00
sg320
I00
sg321
Nsg322
I00
sbag0
(g314
g2
Ntp1338
Rp1339
(dp1340
g35
(I8
I9
tp1341
sg319
I00
sg320
I00
sg321
Nsg322
I00
sbag0
(g314
g2
Ntp1342
Rp1343
(dp1344
g35
(I8
I10
tp1345
sg319
I00
sg320
I00
sg321
Nsg322
I00
sbag0
(g314
g2
Ntp1346
Rp1347
(dp1348
g35
(I8
I11
tp1349
sg319
I00
sg320
I00
sg321
Nsg322
I00
sbag0
(g314
g2
Ntp1350
Rp1351
(dp1352
g35
(I8
I12
tp1353
sg319
I00
sg320
I00
sg321
Nsg322
I00
sbag0
(g314
g2
Ntp1354
Rp1355
(dp1356
g35
(I8
I13
tp1357
sg319
I00
sg320
I00
sg321
Nsg322
I00
sbag0
(g314
g2
Ntp1358
Rp1359
(dp1360
g35
(I8
I14
tp1361
sg319
I00
sg320
I00
sg321
Nsg322
I00
sbag0
(g314
g2
Ntp1362
Rp1363
(dp1364
g35
(I8
I15
tp1365
sg319
I00
sg320
I00
sg321
Nsg322
I00
sbag0
(g314
g2
Ntp1366
Rp1367
(dp1368
g35
(I8
I16
tp1369
sg319
I00
sg320
I00
sg321
Nsg322
I00
sbag0
(g314
g2
Ntp1370
Rp1371
(dp1372
g35
(I8
I17
tp1373
sg319
I00
sg320
I00
sg321
Nsg322
I00
sbag0
(g314
g2
Ntp1374
Rp1375
(dp1376
g35
(I8
I18
tp1377
sg319
I00
sg320
I00
sg321
Nsg322
I00
sbag0
(g314
g2
Ntp1378
Rp1379
(dp1380
g35
(I8
I19
tp1381
sg319
I00
sg320
I00
sg321
Nsg322
I00
sbag0
(g314
g2
Ntp1382
Rp1383
(dp1384
g35
(I8
I20
tp1385
sg319
I00
sg320
I00
sg321
Nsg322
I00
sbag0
(g314
g2
Ntp1386
Rp1387
(dp1388
g35
(I8
I21
tp1389
sg319
I00
sg320
I00
sg321
Nsg322
I00
sbag0
(g314
g2
Ntp1390
Rp1391
(dp1392
g35
(I8
I22
tp1393
sg319
I00
sg320
I00
sg321
Nsg322
I00
sbag0
(g314
g2
Ntp1394
Rp1395
(dp1396
g35
(I8
I23
tp1397
sg319
I00
sg320
I00
sg321
Nsg322
I00
sbag0
(g314
g2
Ntp1398
Rp1399
(dp1400
g35
(I8
I24
tp1401
sg319
I00
sg320
I00
sg321
Nsg322
I00
sbag0
(g314
g2
Ntp1402
Rp1403
(dp1404
g35
(I8
I25
tp1405
sg319
I00
sg320
I00
sg321
Nsg322
I00
sbag0
(g314
g2
Ntp1406
Rp1407
(dp1408
g35
(I8
I26
tp1409
sg319
I00
sg320
I00
sg321
Nsg322
I00
sbag0
(g314
g2
Ntp1410
Rp1411
(dp1412
g35
(I8
I27
tp1413
sg319
I00
sg320
I00
sg321
Nsg322
I00
sbag0
(g314
g2
Ntp1414
Rp1415
(dp1416
g35
(I8
I28
tp1417
sg319
I00
sg320
I00
sg321
Nsg322
I00
sbag0
(g314
g2
Ntp1418
Rp1419
(dp1420
g35
(I8
I29
tp1421
sg319
I00
sg320
I00
sg321
Nsg322
I00
sbaa(lp1422
g0
(g314
g2
Ntp1423
Rp1424
(dp1425
g35
(I9
I0
tp1426
sg319
I00
sg320
I00
sg321
Nsg322
I00
sbag0
(g314
g2
Ntp1427
Rp1428
(dp1429
g35
(I9
I1
tp1430
sg319
I00
sg320
I00
sg321
Nsg322
I00
sbag0
(g314
g2
Ntp1431
Rp1432
(dp1433
g35
(I9
I2
tp1434
sg319
I00
sg320
I00
sg321
Nsg322
I00
sbag0
(g314
g2
Ntp1435
Rp1436
(dp1437
g35
(I9
I3
tp1438
sg319
I00
sg320
I00
sg321
Nsg322
I00
sbag0
(g314
g2
Ntp1439
Rp1440
(dp1441
g35
(I9
I4
tp1442
sg319
I00
sg320
I00
sg321
Nsg322
I00
sbag0
(g314
g2
Ntp1443
Rp1444
(dp1445
g35
(I9
I5
tp1446
sg319
I00
sg320
I00
sg321
Nsg322
I00
sbag0
(g314
g2
Ntp1447
Rp1448
(dp1449
g35
(I9
I6
tp1450
sg319
I00
sg320
I00
sg321
Nsg322
I00
sbag0
(g314
g2
Ntp1451
Rp1452
(dp1453
g35
(I9
I7
tp1454
sg319
I00
sg320
I00
sg321
Nsg322
I00
sbag0
(g314
g2
Ntp1455
Rp1456
(dp1457
g35
(I9
I8
tp1458
sg319
I00
sg320
I00
sg321
Nsg322
I00
sbag0
(g314
g2
Ntp1459
Rp1460
(dp1461
g35
(I9
I9
tp1462
sg319
I00
sg320
I00
sg321
Nsg322
I00
sbag0
(g314
g2
Ntp1463
Rp1464
(dp1465
g35
(I9
I10
tp1466
sg319
I00
sg320
I00
sg321
Nsg322
I00
sbag0
(g314
g2
Ntp1467
Rp1468
(dp1469
g35
(I9
I11
tp1470
sg319
I00
sg320
I00
sg321
Nsg322
I00
sbag0
(g314
g2
Ntp1471
Rp1472
(dp1473
g35
(I9
I12
tp1474
sg319
I00
sg320
I00
sg321
Nsg322
I00
sbag0
(g314
g2
Ntp1475
Rp1476
(dp1477
g35
(I9
I13
tp1478
sg319
I00
sg320
I00
sg321
Nsg322
I00
sbag0
(g314
g2
Ntp1479
Rp1480
(dp1481
g35
(I9
I14
tp1482
sg319
I00
sg320
I00
sg321
Nsg322
I00
sbag0
(g314
g2
Ntp1483
Rp1484
(dp1485
g35
(I9
I15
tp1486
sg319
I00
sg320
I00
sg321
Nsg322
I00
sbag0
(g314
g2
Ntp1487
Rp1488
(dp1489
g35
(I9
I16
tp1490
sg319
I00
sg320
I00
sg321
Nsg322
I00
sbag0
(g314
g2
Ntp1491
Rp1492
(dp1493
g35
(I9
I17
tp1494
sg319
I00
sg320
I00
sg321
Nsg322
I00
sbag0
(g314
g2
Ntp1495
Rp1496
(dp1497
g35
(I9
I18
tp1498
sg319
I00
sg320
I00
sg321
Nsg322
I00
sbag0
(g314
g2
Ntp1499
Rp1500
(dp1501
g35
(I9
I19
tp1502
sg319
I00
sg320
I00
sg321
Nsg322
I00
sbag0
(g314
g2
Ntp1503
Rp1504
(dp1505
g35
(I9
I20
tp1506
sg319
I00
sg320
I00
sg321
Nsg322
I00
sbag0
(g314
g2
Ntp1507
Rp1508
(dp1509
g35
(I9
I21
tp1510
sg319
I00
sg320
I00
sg321
Nsg322
I00
sbag0
(g314
g2
Ntp1511
Rp1512
(dp1513
g35
(I9
I22
tp1514
sg319
I00
sg320
I00
sg321
Nsg322
I00
sbag0
(g314
g2
Ntp1515
Rp1516
(dp1517
g35
(I9
I23
tp1518
sg319
I00
sg320
I00
sg321
Nsg322
I00
sbag0
(g314
g2
Ntp1519
Rp1520
(dp1521
g35
(I9
I24
tp1522
sg319
I00
sg320
I00
sg321
Nsg322
I00
sbag0
(g314
g2
Ntp1523
Rp1524
(dp1525
g35
(I9
I25
tp1526
sg319
I00
sg320
I00
sg321
Nsg322
I00
sbag0
(g314
g2
Ntp1527
Rp1528
(dp1529
g35
(I9
I26
tp1530
sg319
I00
sg320
I00
sg321
Nsg322
I00
sbag0
(g314
g2
Ntp1531
Rp1532
(dp1533
g35
(I9
I27
tp1534
sg319
I00
sg320
I00
sg321
Nsg322
I00
sbag0
(g314
g2
Ntp1535
Rp1536
(dp1537
g35
(I9
I28
tp1538
sg319
I00
sg320
I00
sg321
Nsg322
I00
sbag0
(g314
g2
Ntp1539
Rp1540
(dp1541
g35
(I9
I29
tp1542
sg319
I00
sg320
I00
sg321
Nsg322
I00
sbaa(lp1543
g0
(g314
g2
Ntp1544
Rp1545
(dp1546
g35
(I10
I0
tp1547
sg319
I00
sg320
I00
sg321
Nsg322
I00
sbag0
(g314
g2
Ntp1548
Rp1549
(dp1550
g35
(I10
I1
tp1551
sg319
I00
sg320
I00
sg321
Nsg322
I00
sbag0
(g314
g2
Ntp1552
Rp1553
(dp1554
g35
(I10
I2
tp1555
sg319
I00
sg320
I00
sg321
Nsg322
I00
sbag0
(g314
g2
Ntp1556
Rp1557
(dp1558
g35
(I10
I3
tp1559
sg319
I00
sg320
I00
sg321
Nsg322
I00
sbag0
(g314
g2
Ntp1560
Rp1561
(dp1562
g35
(I10
I4
tp1563
sg319
I00
sg320
I00
sg321
Nsg322
I00
sbag0
(g314
g2
Ntp1564
Rp1565
(dp1566
g35
(I10
I5
tp1567
sg319
I00
sg320
I00
sg321
Nsg322
I00
sbag0
(g314
g2
Ntp1568
Rp1569
(dp1570
g35
(I10
I6
tp1571
sg319
I00
sg320
I00
sg321
Nsg322
I00
sbag0
(g314
g2
Ntp1572
Rp1573
(dp1574
g35
(I10
I7
tp1575
sg319
I00
sg320
I00
sg321
Nsg322
I00
sbag0
(g314
g2
Ntp1576
Rp1577
(dp1578
g35
(I10
I8
tp1579
sg319
I00
sg320
I00
sg321
Nsg322
I00
sbag0
(g314
g2
Ntp1580
Rp1581
(dp1582
g35
(I10
I9
tp1583
sg319
I00
sg320
I00
sg321
(iCoral
Coral
p1584
(dp1585
g15
(I242
I186
I111
tp1586
sbsg322
I01
sbag0
(g314
g2
Ntp1587
Rp1588
(dp1589
g35
(I10
I10
tp1590
sg319
I00
sg320
I00
sg321
(iCoral
Coral
p1591
(dp1592
g15
g1586
sbsg322
I01
sbag0
(g314
g2
Ntp1593
Rp1594
(dp1595
g35
(I10
I11
tp1596
sg319
I00
sg320
I00
sg321
Nsg322
I00
sbag0
(g314
g2
Ntp1597
Rp1598
(dp1599
g35
(I10
I12
tp1600
sg319
I00
sg320
I00
sg321
Nsg322
I00
sbag0
(g314
g2
Ntp1601
Rp1602
(dp1603
g35
(I10
I13
tp1604
sg319
I00
sg320
I00
sg321
Nsg322
I00
sbag0
(g314
g2
Ntp1605
Rp1606
(dp1607
g35
(I10
I14
tp1608
sg319
I00
sg320
I00
sg321
Nsg322
I00
sbag0
(g314
g2
Ntp1609
Rp1610
(dp1611
g35
(I10
I15
tp1612
sg319
I00
sg320
I00
sg321
Nsg322
I00
sbag0
(g314
g2
Ntp1613
Rp1614
(dp1615
g35
(I10
I16
tp1616
sg319
I00
sg320
I00
sg321
Nsg322
I00
sbag0
(g314
g2
Ntp1617
Rp1618
(dp1619
g35
(I10
I17
tp1620
sg319
I00
sg320
I00
sg321
Nsg322
I00
sbag0
(g314
g2
Ntp1621
Rp1622
(dp1623
g35
(I10
I18
tp1624
sg319
I00
sg320
I00
sg321
Nsg322
I00
sbag0
(g314
g2
Ntp1625
Rp1626
(dp1627
g35
(I10
I19
tp1628
sg319
I00
sg320
I00
sg321
Nsg322
I00
sbag0
(g314
g2
Ntp1629
Rp1630
(dp1631
g35
(I10
I20
tp1632
sg319
I00
sg320
I00
sg321
Nsg322
I00
sbag0
(g314
g2
Ntp1633
Rp1634
(dp1635
g35
(I10
I21
tp1636
sg319
I00
sg320
I00
sg321
Nsg322
I00
sbag0
(g314
g2
Ntp1637
Rp1638
(dp1639
g35
(I10
I22
tp1640
sg319
I00
sg320
I00
sg321
Nsg322
I00
sbag0
(g314
g2
Ntp1641
Rp1642
(dp1643
g35
(I10
I23
tp1644
sg319
I00
sg320
I00
sg321
Nsg322
I00
sbag0
(g314
g2
Ntp1645
Rp1646
(dp1647
g35
(I10
I24
tp1648
sg319
I00
sg320
I00
sg321
Nsg322
I00
sbag0
(g314
g2
Ntp1649
Rp1650
(dp1651
g35
(I10
I25
tp1652
sg319
I00
sg320
I00
sg321
(iCoral
Coral
p1653
(dp1654
g15
g1586
sbsg322
I01
sbag0
(g314
g2
Ntp1655
Rp1656
(dp1657
g35
(I10
I26
tp1658
sg319
I00
sg320
I00
sg321
Nsg322
I00
sbag0
(g314
g2
Ntp1659
Rp1660
(dp1661
g35
(I10
I27
tp1662
sg319
I00
sg320
I00
sg321
Nsg322
I00
sbag0
(g314
g2
Ntp1663
Rp1664
(dp1665
g35
(I10
I28
tp1666
sg319
I00
sg320
I00
sg321
Nsg322
I00
sbag0
(g314
g2
Ntp1667
Rp1668
(dp1669
g35
(I10
I29
tp1670
sg319
I00
sg320
I00
sg321
Nsg322
I00
sbaa(lp1671
g0
(g314
g2
Ntp1672
Rp1673
(dp1674
g35
(I11
I0
tp1675
sg319
I00
sg320
I00
sg321
Nsg322
I00
sbag0
(g314
g2
Ntp1676
Rp1677
(dp1678
g35
(I11
I1
tp1679
sg319
I00
sg320
I00
sg321
Nsg322
I00
sbag0
(g314
g2
Ntp1680
Rp1681
(dp1682
g35
(I11
I2
tp1683
sg319
I00
sg320
I00
sg321
Nsg322
I00
sbag0
(g314
g2
Ntp1684
Rp1685
(dp1686
g35
(I11
I3
tp1687
sg319
I00
sg320
I00
sg321
Nsg322
I00
sbag0
(g314
g2
Ntp1688
Rp1689
(dp1690
g35
(I11
I4
tp1691
sg319
I00
sg320
I00
sg321
Nsg322
I00
sbag0
(g314
g2
Ntp1692
Rp1693
(dp1694
g35
(I11
I5
tp1695
sg319
I00
sg320
I00
sg321
(iCoral
Coral
p1696
(dp1697
g15
g1586
sbsg322
I01
sbag0
(g314
g2
Ntp1698
Rp1699
(dp1700
g35
(I11
I6
tp1701
sg319
I00
sg320
I00
sg321
Nsg322
I00
sbag0
(g314
g2
Ntp1702
Rp1703
(dp1704
g35
(I11
I7
tp1705
sg319
I00
sg320
I00
sg321
Nsg322
I00
sbag0
(g314
g2
Ntp1706
Rp1707
(dp1708
g35
(I11
I8
tp1709
sg319
I00
sg320
I00
sg321
Nsg322
I00
sbag0
(g314
g2
Ntp1710
Rp1711
(dp1712
g35
(I11
I9
tp1713
sg319
I00
sg320
I00
sg321
Nsg322
I00
sbag0
(g314
g2
Ntp1714
Rp1715
(dp1716
g35
(I11
I10
tp1717
sg319
I00
sg320
I00
sg321
Nsg322
I00
sbag0
(g314
g2
Ntp1718
Rp1719
(dp1720
g35
(I11
I11
tp1721
sg319
I00
sg320
I00
sg321
Nsg322
I00
sbag0
(g314
g2
Ntp1722
Rp1723
(dp1724
g35
(I11
I12
tp1725
sg319
I00
sg320
I00
sg321
Nsg322
I00
sbag0
(g314
g2
Ntp1726
Rp1727
(dp1728
g35
(I11
I13
tp1729
sg319
I00
sg320
I00
sg321
(iCoral
Coral
p1730
(dp1731
g15
g1586
sbsg322
I01
sbag0
(g314
g2
Ntp1732
Rp1733
(dp1734
g35
(I11
I14
tp1735
sg319
I00
sg320
I00
sg321
Nsg322
I00
sbag0
(g314
g2
Ntp1736
Rp1737
(dp1738
g35
(I11
I15
tp1739
sg319
I00
sg320
I00
sg321
Nsg322
I00
sbag0
(g314
g2
Ntp1740
Rp1741
(dp1742
g35
(I11
I16
tp1743
sg319
I00
sg320
I00
sg321
Nsg322
I00
sbag0
(g314
g2
Ntp1744
Rp1745
(dp1746
g35
(I11
I17
tp1747
sg319
I00
sg320
I00
sg321
Nsg322
I00
sbag0
(g314
g2
Ntp1748
Rp1749
(dp1750
g35
(I11
I18
tp1751
sg319
I00
sg320
I00
sg321
Nsg322
I00
sbag0
(g314
g2
Ntp1752
Rp1753
(dp1754
g35
(I11
I19
tp1755
sg319
I00
sg320
I00
sg321
Nsg322
I00
sbag0
(g314
g2
Ntp1756
Rp1757
(dp1758
g35
(I11
I20
tp1759
sg319
I00
sg320
I00
sg321
(iCoral
Coral
p1760
(dp1761
g15
g1586
sbsg322
I01
sbag0
(g314
g2
Ntp1762
Rp1763
(dp1764
g35
(I11
I21
tp1765
sg319
I00
sg320
I00
sg321
Nsg322
I00
sbag0
(g314
g2
Ntp1766
Rp1767
(dp1768
g35
(I11
I22
tp1769
sg319
I00
sg320
I00
sg321
(iCoral
Coral
p1770
(dp1771
g15
g1586
sbsg322
I01
sbag0
(g314
g2
Ntp1772
Rp1773
(dp1774
g35
(I11
I23
tp1775
sg319
I00
sg320
I00
sg321
Nsg322
I00
sbag0
(g314
g2
Ntp1776
Rp1777
(dp1778
g35
(I11
I24
tp1779
sg319
I00
sg320
I00
sg321
Nsg322
I00
sbag0
(g314
g2
Ntp1780
Rp1781
(dp1782
g35
(I11
I25
tp1783
sg319
I00
sg320
I00
sg321
Nsg322
I00
sbag0
(g314
g2
Ntp1784
Rp1785
(dp1786
g35
(I11
I26
tp1787
sg319
I00
sg320
I00
sg321
Nsg322
I00
sbag0
(g314
g2
Ntp1788
Rp1789
(dp1790
g35
(I11
I27
tp1791
sg319
I00
sg320
I00
sg321
Nsg322
I00
sbag0
(g314
g2
Ntp1792
Rp1793
(dp1794
g35
(I11
I28
tp1795
sg319
I00
sg320
I00
sg321
Nsg322
I00
sbag0
(g314
g2
Ntp1796
Rp1797
(dp1798
g35
(I11
I29
tp1799
sg319
I00
sg320
I00
sg321
Nsg322
I00
sbaa(lp1800
g0
(g314
g2
Ntp1801
Rp1802
(dp1803
g35
(I12
I0
tp1804
sg319
I00
sg320
I00
sg321
Nsg322
I00
sbag0
(g314
g2
Ntp1805
Rp1806
(dp1807
g35
(I12
I1
tp1808
sg319
I00
sg320
I00
sg321
Nsg322
I00
sbag0
(g314
g2
Ntp1809
Rp1810
(dp1811
g35
(I12
I2
tp1812
sg319
I00
sg320
I00
sg321
Nsg322
I00
sbag0
(g314
g2
Ntp1813
Rp1814
(dp1815
g35
(I12
I3
tp1816
sg319
I00
sg320
I00
sg321
Nsg322
I00
sbag0
(g314
g2
Ntp1817
Rp1818
(dp1819
g35
(I12
I4
tp1820
sg319
I00
sg320
I00
sg321
Nsg322
I00
sbag0
(g314
g2
Ntp1821
Rp1822
(dp1823
g35
(I12
I5
tp1824
sg319
I00
sg320
I00
sg321
Nsg322
I00
sbag0
(g314
g2
Ntp1825
Rp1826
(dp1827
g35
(I12
I6
tp1828
sg319
I00
sg320
I00
sg321
Nsg322
I00
sbag0
(g314
g2
Ntp1829
Rp1830
(dp1831
g35
(I12
I7
tp1832
sg319
I00
sg320
I00
sg321
Nsg322
I00
sbag0
(g314
g2
Ntp1833
Rp1834
(dp1835
g35
(I12
I8
tp1836
sg319
I00
sg320
I00
sg321
Nsg322
I00
sbag0
(g314
g2
Ntp1837
Rp1838
(dp1839
g35
(I12
I9
tp1840
sg319
I00
sg320
I00
sg321
Nsg322
I00
sbag0
(g314
g2
Ntp1841
Rp1842
(dp1843
g35
(I12
I10
tp1844
sg319
I00
sg320
I00
sg321
Nsg322
I01
sbag0
(g314
g2
Ntp1845
Rp1846
(dp1847
g35
(I12
I11
tp1848
sg319
I00
sg320
I00
sg321
Nsg322
I01
sbag0
(g314
g2
Ntp1849
Rp1850
(dp1851
g35
(I12
I12
tp1852
sg319
I00
sg320
I00
sg321
Nsg322
I01
sbag0
(g314
g2
Ntp1853
Rp1854
(dp1855
g35
(I12
I13
tp1856
sg319
I00
sg320
I00
sg321
Nsg322
I00
sbag0
(g314
g2
Ntp1857
Rp1858
(dp1859
g35
(I12
I14
tp1860
sg319
I00
sg320
I00
sg321
(iCoral
Coral
p1861
(dp1862
g15
g1586
sbsg322
I01
sbag0
(g314
g2
Ntp1863
Rp1864
(dp1865
g35
(I12
I15
tp1866
sg319
I00
sg320
I00
sg321
Nsg322
I00
sbag0
(g314
g2
Ntp1867
Rp1868
(dp1869
g35
(I12
I16
tp1870
sg319
I00
sg320
I00
sg321
Nsg322
I00
sbag0
(g314
g2
Ntp1871
Rp1872
(dp1873
g35
(I12
I17
tp1874
sg319
I00
sg320
I00
sg321
Nsg322
I00
sbag0
(g314
g2
Ntp1875
Rp1876
(dp1877
g35
(I12
I18
tp1878
sg319
I00
sg320
I00
sg321
Nsg322
I00
sbag0
(g314
g2
Ntp1879
Rp1880
(dp1881
g35
(I12
I19
tp1882
sg319
I00
sg320
I00
sg321
Nsg322
I00
sbag0
(g314
g2
Ntp1883
Rp1884
(dp1885
g35
(I12
I20
tp1886
sg319
I00
sg320
I00
sg321
Nsg322
I00
sbag0
(g314
g2
Ntp1887
Rp1888
(dp1889
g35
(I12
I21
tp1890
sg319
I00
sg320
I00
sg321
Nsg322
I00
sbag0
(g314
g2
Ntp1891
Rp1892
(dp1893
g35
(I12
I22
tp1894
sg319
I00
sg320
I00
sg321
Nsg322
I00
sbag0
(g314
g2
Ntp1895
Rp1896
(dp1897
g35
(I12
I23
tp1898
sg319
I00
sg320
I00
sg321
Nsg322
I00
sbag0
(g314
g2
Ntp1899
Rp1900
(dp1901
g35
(I12
I24
tp1902
sg319
I00
sg320
I00
sg321
Nsg322
I00
sbag0
(g314
g2
Ntp1903
Rp1904
(dp1905
g35
(I12
I25
tp1906
sg319
I00
sg320
I00
sg321
Nsg322
I00
sbag0
(g314
g2
Ntp1907
Rp1908
(dp1909
g35
(I12
I26
tp1910
sg319
I00
sg320
I00
sg321
Nsg322
I00
sbag0
(g314
g2
Ntp1911
Rp1912
(dp1913
g35
(I12
I27
tp1914
sg319
I00
sg320
I00
sg321
Nsg322
I00
sbag0
(g314
g2
Ntp1915
Rp1916
(dp1917
g35
(I12
I28
tp1918
sg319
I00
sg320
I00
sg321
Nsg322
I00
sbag0
(g314
g2
Ntp1919
Rp1920
(dp1921
g35
(I12
I29
tp1922
sg319
I00
sg320
I00
sg321
Nsg322
I00
sbaa(lp1923
g0
(g314
g2
Ntp1924
Rp1925
(dp1926
g35
(I13
I0
tp1927
sg319
I00
sg320
I00
sg321
Nsg322
I00
sbag0
(g314
g2
Ntp1928
Rp1929
(dp1930
g35
(I13
I1
tp1931
sg319
I00
sg320
I00
sg321
Nsg322
I00
sbag0
(g314
g2
Ntp1932
Rp1933
(dp1934
g35
(I13
I2
tp1935
sg319
I00
sg320
I00
sg321
Nsg322
I00
sbag0
(g314
g2
Ntp1936
Rp1937
(dp1938
g35
(I13
I3
tp1939
sg319
I00
sg320
I00
sg321
Nsg322
I00
sbag0
(g314
g2
Ntp1940
Rp1941
(dp1942
g35
(I13
I4
tp1943
sg319
I00
sg320
I00
sg321
Nsg322
I00
sbag0
(g314
g2
Ntp1944
Rp1945
(dp1946
g35
(I13
I5
tp1947
sg319
I00
sg320
I00
sg321
Nsg322
I00
sbag0
(g314
g2
Ntp1948
Rp1949
(dp1950
g35
(I13
I6
tp1951
sg319
I00
sg320
I00
sg321
(iCoral
Coral
p1952
(dp1953
g15
g1586
sbsg322
I01
sbag0
(g314
g2
Ntp1954
Rp1955
(dp1956
g35
(I13
I7
tp1957
sg319
I00
sg320
I00
sg321
(iCoral
Coral
p1958
(dp1959
g15
g1586
sbsg322
I01
sbag0
(g314
g2
Ntp1960
Rp1961
(dp1962
g35
(I13
I8
tp1963
sg319
I00
sg320
I00
sg321
Nsg322
I00
sbag0
(g314
g2
Ntp1964
Rp1965
(dp1966
g35
(I13
I9
tp1967
sg319
I00
sg320
I00
sg321
Nsg322
I00
sbag0
(g314
g2
Ntp1968
Rp1969
(dp1970
g35
(I13
I10
tp1971
sg319
I00
sg320
I00
sg321
Nsg322
I01
sbag0
(g314
g2
Ntp1972
Rp1973
(dp1974
g35
(I13
I11
tp1975
sg319
I00
sg320
I00
sg321
Nsg322
I01
sbag0
(g314
g2
Ntp1976
Rp1977
(dp1978
g35
(I13
I12
tp1979
sg319
I00
sg320
I00
sg321
Nsg322
I01
sbag0
(g314
g2
Ntp1980
Rp1981
(dp1982
g35
(I13
I13
tp1983
sg319
I00
sg320
I00
sg321
Nsg322
I00
sbag0
(g314
g2
Ntp1984
Rp1985
(dp1986
g35
(I13
I14
tp1987
sg319
I00
sg320
I00
sg321
Nsg322
I00
sbag0
(g314
g2
Ntp1988
Rp1989
(dp1990
g35
(I13
I15
tp1991
sg319
I00
sg320
I00
sg321
Nsg322
I00
sbag0
(g314
g2
Ntp1992
Rp1993
(dp1994
g35
(I13
I16
tp1995
sg319
I00
sg320
I00
sg321
Nsg322
I00
sbag0
(g314
g2
Ntp1996
Rp1997
(dp1998
g35
(I13
I17
tp1999
sg319
I00
sg320
I00
sg321
Nsg322
I00
sbag0
(g314
g2
Ntp2000
Rp2001
(dp2002
g35
(I13
I18
tp2003
sg319
I00
sg320
I00
sg321
Nsg322
I00
sbag0
(g314
g2
Ntp2004
Rp2005
(dp2006
g35
(I13
I19
tp2007
sg319
I00
sg320
I00
sg321
Nsg322
I00
sbag0
(g314
g2
Ntp2008
Rp2009
(dp2010
g35
(I13
I20
tp2011
sg319
I00
sg320
I00
sg321
Nsg322
I00
sbag0
(g314
g2
Ntp2012
Rp2013
(dp2014
g35
(I13
I21
tp2015
sg319
I00
sg320
I00
sg321
Nsg322
I00
sbag0
(g314
g2
Ntp2016
Rp2017
(dp2018
g35
(I13
I22
tp2019
sg319
I00
sg320
I00
sg321
Nsg322
I00
sbag0
(g314
g2
Ntp2020
Rp2021
(dp2022
g35
(I13
I23
tp2023
sg319
I00
sg320
I00
sg321
(iCoral
Coral
p2024
(dp2025
g15
g1586
sbsg322
I01
sbag0
(g314
g2
Ntp2026
Rp2027
(dp2028
g35
(I13
I24
tp2029
sg319
I00
sg320
I00
sg321
Nsg322
I00
sbag0
(g314
g2
Ntp2030
Rp2031
(dp2032
g35
(I13
I25
tp2033
sg319
I00
sg320
I00
sg321
Nsg322
I00
sbag0
(g314
g2
Ntp2034
Rp2035
(dp2036
g35
(I13
I26
tp2037
sg319
I00
sg320
I00
sg321
Nsg322
I00
sbag0
(g314
g2
Ntp2038
Rp2039
(dp2040
g35
(I13
I27
tp2041
sg319
I00
sg320
I00
sg321
Nsg322
I00
sbag0
(g314
g2
Ntp2042
Rp2043
(dp2044
g35
(I13
I28
tp2045
sg319
I00
sg320
I00
sg321
Nsg322
I00
sbag0
(g314
g2
Ntp2046
Rp2047
(dp2048
g35
(I13
I29
tp2049
sg319
I00
sg320
I00
sg321
Nsg322
I00
sbaa(lp2050
g0
(g314
g2
Ntp2051
Rp2052
(dp2053
g35
(I14
I0
tp2054
sg319
I00
sg320
I00
sg321
Nsg322
I00
sbag0
(g314
g2
Ntp2055
Rp2056
(dp2057
g35
(I14
I1
tp2058
sg319
I00
sg320
I00
sg321
Nsg322
I00
sbag0
(g314
g2
Ntp2059
Rp2060
(dp2061
g35
(I14
I2
tp2062
sg319
I00
sg320
I00
sg321
Nsg322
I00
sbag0
(g314
g2
Ntp2063
Rp2064
(dp2065
g35
(I14
I3
tp2066
sg319
I00
sg320
I00
sg321
Nsg322
I00
sbag0
(g314
g2
Ntp2067
Rp2068
(dp2069
g35
(I14
I4
tp2070
sg319
I00
sg320
I00
sg321
Nsg322
I00
sbag0
(g314
g2
Ntp2071
Rp2072
(dp2073
g35
(I14
I5
tp2074
sg319
I00
sg320
I00
sg321
Nsg322
I00
sbag0
(g314
g2
Ntp2075
Rp2076
(dp2077
g35
(I14
I6
tp2078
sg319
I00
sg320
I00
sg321
Nsg322
I00
sbag0
(g314
g2
Ntp2079
Rp2080
(dp2081
g35
(I14
I7
tp2082
sg319
I00
sg320
I00
sg321
Nsg322
I00
sbag0
(g314
g2
Ntp2083
Rp2084
(dp2085
g35
(I14
I8
tp2086
sg319
I00
sg320
I00
sg321
Nsg322
I00
sbag0
(g314
g2
Ntp2087
Rp2088
(dp2089
g35
(I14
I9
tp2090
sg319
I00
sg320
I00
sg321
Nsg322
I00
sbag0
(g314
g2
Ntp2091
Rp2092
(dp2093
g35
(I14
I10
tp2094
sg319
I00
sg320
I00
sg321
Nsg322
I01
sbag0
(g314
g2
Ntp2095
Rp2096
(dp2097
g35
(I14
I11
tp2098
sg319
I00
sg320
I00
sg321
Nsg322
I01
sbag0
(g314
g2
Ntp2099
Rp2100
(dp2101
g35
(I14
I12
tp2102
sg319
I00
sg320
I00
sg321
Nsg322
I01
sbag0
(g314
g2
Ntp2103
Rp2104
(dp2105
g35
(I14
I13
tp2106
sg319
I00
sg320
I00
sg321
Nsg322
I00
sbag0
(g314
g2
Ntp2107
Rp2108
(dp2109
g35
(I14
I14
tp2110
sg319
I00
sg320
I00
sg321
Nsg322
I00
sbag0
(g314
g2
Ntp2111
Rp2112
(dp2113
g35
(I14
I15
tp2114
sg319
I00
sg320
I00
sg321
Nsg322
I00
sbag0
(g314
g2
Ntp2115
Rp2116
(dp2117
g35
(I14
I16
tp2118
sg319
I00
sg320
I00
sg321
Nsg322
I00
sbag0
(g314
g2
Ntp2119
Rp2120
(dp2121
g35
(I14
I17
tp2122
sg319
I00
sg320
I00
sg321
Nsg322
I00
sbag0
(g314
g2
Ntp2123
Rp2124
(dp2125
g35
(I14
I18
tp2126
sg319
I00
sg320
I00
sg321
Nsg322
I00
sbag0
(g314
g2
Ntp2127
Rp2128
(dp2129
g35
(I14
I19
tp2130
sg319
I00
sg320
I00
sg321
Nsg322
I00
sbag0
(g314
g2
Ntp2131
Rp2132
(dp2133
g35
(I14
I20
tp2134
sg319
I00
sg320
I00
sg321
Nsg322
I00
sbag0
(g314
g2
Ntp2135
Rp2136
(dp2137
g35
(I14
I21
tp2138
sg319
I00
sg320
I00
sg321
Nsg322
I00
sbag0
(g314
g2
Ntp2139
Rp2140
(dp2141
g35
(I14
I22
tp2142
sg319
I00
sg320
I00
sg321
(iCoral
Coral
p2143
(dp2144
g15
g1586
sbsg322
I01
sbag0
(g314
g2
Ntp2145
Rp2146
(dp2147
g35
(I14
I23
tp2148
sg319
I00
sg320
I00
sg321
Nsg322
I00
sbag0
(g314
g2
Ntp2149
Rp2150
(dp2151
g35
(I14
I24
tp2152
sg319
I00
sg320
I00
sg321
Nsg322
I00
sbag0
(g314
g2
Ntp2153
Rp2154
(dp2155
g35
(I14
I25
tp2156
sg319
I00
sg320
I00
sg321
Nsg322
I00
sbag0
(g314
g2
Ntp2157
Rp2158
(dp2159
g35
(I14
I26
tp2160
sg319
I00
sg320
I00
sg321
Nsg322
I00
sbag0
(g314
g2
Ntp2161
Rp2162
(dp2163
g35
(I14
I27
tp2164
sg319
I00
sg320
I00
sg321
Nsg322
I00
sbag0
(g314
g2
Ntp2165
Rp2166
(dp2167
g35
(I14
I28
tp2168
sg319
I00
sg320
I00
sg321
Nsg322
I00
sbag0
(g314
g2
Ntp2169
Rp2170
(dp2171
g35
(I14
I29
tp2172
sg319
I00
sg320
I00
sg321
Nsg322
I00
sbaa(lp2173
g0
(g314
g2
Ntp2174
Rp2175
(dp2176
g35
(I15
I0
tp2177
sg319
I00
sg320
I00
sg321
Nsg322
I00
sbag0
(g314
g2
Ntp2178
Rp2179
(dp2180
g35
(I15
I1
tp2181
sg319
I00
sg320
I00
sg321
Nsg322
I00
sbag0
(g314
g2
Ntp2182
Rp2183
(dp2184
g35
(I15
I2
tp2185
sg319
I00
sg320
I00
sg321
Nsg322
I00
sbag0
(g314
g2
Ntp2186
Rp2187
(dp2188
g35
(I15
I3
tp2189
sg319
I00
sg320
I00
sg321
Nsg322
I00
sbag0
(g314
g2
Ntp2190
Rp2191
(dp2192
g35
(I15
I4
tp2193
sg319
I00
sg320
I00
sg321
Nsg322
I00
sbag0
(g314
g2
Ntp2194
Rp2195
(dp2196
g35
(I15
I5
tp2197
sg319
I00
sg320
I00
sg321
Nsg322
I00
sbag0
(g314
g2
Ntp2198
Rp2199
(dp2200
g35
(I15
I6
tp2201
sg319
I00
sg320
I00
sg321
Nsg322
I00
sbag0
(g314
g2
Ntp2202
Rp2203
(dp2204
g35
(I15
I7
tp2205
sg319
I00
sg320
I00
sg321
Nsg322
I00
sbag0
(g314
g2
Ntp2206
Rp2207
(dp2208
g35
(I15
I8
tp2209
sg319
I00
sg320
I00
sg321
Nsg322
I00
sbag0
(g314
g2
Ntp2210
Rp2211
(dp2212
g35
(I15
I9
tp2213
sg319
I00
sg320
I00
sg321
Nsg322
I00
sbag0
(g314
g2
Ntp2214
Rp2215
(dp2216
g35
(I15
I10
tp2217
sg319
I00
sg320
I00
sg321
Nsg322
I01
sbag0
(g314
g2
Ntp2218
Rp2219
(dp2220
g35
(I15
I11
tp2221
sg319
I00
sg320
I00
sg321
Nsg322
I01
sbag0
(g314
g2
Ntp2222
Rp2223
(dp2224
g35
(I15
I12
tp2225
sg319
I00
sg320
I00
sg321
Nsg322
I01
sbag0
(g314
g2
Ntp2226
Rp2227
(dp2228
g35
(I15
I13
tp2229
sg319
I00
sg320
I00
sg321
Nsg322
I00
sbag0
(g314
g2
Ntp2230
Rp2231
(dp2232
g35
(I15
I14
tp2233
sg319
I00
sg320
I00
sg321
(iCoral
Coral
p2234
(dp2235
g15
g1586
sbsg322
I01
sbag0
(g314
g2
Ntp2236
Rp2237
(dp2238
g35
(I15
I15
tp2239
sg319
I00
sg320
I00
sg321
Nsg322
I00
sbag0
(g314
g2
Ntp2240
Rp2241
(dp2242
g35
(I15
I16
tp2243
sg319
I00
sg320
I00
sg321
Nsg322
I00
sbag0
(g314
g2
Ntp2244
Rp2245
(dp2246
g35
(I15
I17
tp2247
sg319
I00
sg320
I00
sg321
Nsg322
I00
sbag0
(g314
g2
Ntp2248
Rp2249
(dp2250
g35
(I15
I18
tp2251
sg319
I00
sg320
I00
sg321
Nsg322
I00
sbag0
(g314
g2
Ntp2252
Rp2253
(dp2254
g35
(I15
I19
tp2255
sg319
I00
sg320
I00
sg321
Nsg322
I00
sbag0
(g314
g2
Ntp2256
Rp2257
(dp2258
g35
(I15
I20
tp2259
sg319
I00
sg320
I00
sg321
Nsg322
I00
sbag0
(g314
g2
Ntp2260
Rp2261
(dp2262
g35
(I15
I21
tp2263
sg319
I00
sg320
I00
sg321
Nsg322
I00
sbag0
(g314
g2
Ntp2264
Rp2265
(dp2266
g35
(I15
I22
tp2267
sg319
I00
sg320
I00
sg321
Nsg322
I00
sbag0
(g314
g2
Ntp2268
Rp2269
(dp2270
g35
(I15
I23
tp2271
sg319
I00
sg320
I00
sg321
Nsg322
I00
sbag0
(g314
g2
Ntp2272
Rp2273
(dp2274
g35
(I15
I24
tp2275
sg319
I00
sg320
I00
sg321
Nsg322
I00
sbag0
(g314
g2
Ntp2276
Rp2277
(dp2278
g35
(I15
I25
tp2279
sg319
I00
sg320
I00
sg321
Nsg322
I00
sbag0
(g314
g2
Ntp2280
Rp2281
(dp2282
g35
(I15
I26
tp2283
sg319
I00
sg320
I00
sg321
Nsg322
I00
sbag0
(g314
g2
Ntp2284
Rp2285
(dp2286
g35
(I15
I27
tp2287
sg319
I00
sg320
I00
sg321
Nsg322
I00
sbag0
(g314
g2
Ntp2288
Rp2289
(dp2290
g35
(I15
I28
tp2291
sg319
I00
sg320
I00
sg321
Nsg322
I00
sbag0
(g314
g2
Ntp2292
Rp2293
(dp2294
g35
(I15
I29
tp2295
sg319
I00
sg320
I00
sg321
Nsg322
I00
sbaa(lp2296
g0
(g314
g2
Ntp2297
Rp2298
(dp2299
g35
(I16
I0
tp2300
sg319
I00
sg320
I00
sg321
Nsg322
I00
sbag0
(g314
g2
Ntp2301
Rp2302
(dp2303
g35
(I16
I1
tp2304
sg319
I00
sg320
I00
sg321
Nsg322
I00
sbag0
(g314
g2
Ntp2305
Rp2306
(dp2307
g35
(I16
I2
tp2308
sg319
I00
sg320
I00
sg321
Nsg322
I00
sbag0
(g314
g2
Ntp2309
Rp2310
(dp2311
g35
(I16
I3
tp2312
sg319
I00
sg320
I00
sg321
Nsg322
I00
sbag0
(g314
g2
Ntp2313
Rp2314
(dp2315
g35
(I16
I4
tp2316
sg319
I00
sg320
I00
sg321
Nsg322
I00
sbag0
(g314
g2
Ntp2317
Rp2318
(dp2319
g35
(I16
I5
tp2320
sg319
I00
sg320
I00
sg321
Nsg322
I00
sbag0
(g314
g2
Ntp2321
Rp2322
(dp2323
g35
(I16
I6
tp2324
sg319
I00
sg320
I00
sg321
Nsg322
I00
sbag0
(g314
g2
Ntp2325
Rp2326
(dp2327
g35
(I16
I7
tp2328
sg319
I00
sg320
I00
sg321
Nsg322
I00
sbag0
(g314
g2
Ntp2329
Rp2330
(dp2331
g35
(I16
I8
tp2332
sg319
I00
sg320
I00
sg321
Nsg322
I00
sbag0
(g314
g2
Ntp2333
Rp2334
(dp2335
g35
(I16
I9
tp2336
sg319
I00
sg320
I00
sg321
Nsg322
I00
sbag0
(g314
g2
Ntp2337
Rp2338
(dp2339
g35
(I16
I10
tp2340
sg319
I00
sg320
I00
sg321
Nsg322
I01
sbag0
(g314
g2
Ntp2341
Rp2342
(dp2343
g35
(I16
I11
tp2344
sg319
I00
sg320
I00
sg321
Nsg322
I01
sbag0
(g314
g2
Ntp2345
Rp2346
(dp2347
g35
(I16
I12
tp2348
sg319
I00
sg320
I00
sg321
(iCoral
Coral
p2349
(dp2350
g15
g1586
sbsg322
I01
sbag0
(g314
g2
Ntp2351
Rp2352
(dp2353
g35
(I16
I13
tp2354
sg319
I00
sg320
I00
sg321
Nsg322
I00
sbag0
(g314
g2
Ntp2355
Rp2356
(dp2357
g35
(I16
I14
tp2358
sg319
I00
sg320
I00
sg321
Nsg322
I00
sbag0
(g314
g2
Ntp2359
Rp2360
(dp2361
g35
(I16
I15
tp2362
sg319
I00
sg320
I00
sg321
Nsg322
I00
sbag0
(g314
g2
Ntp2363
Rp2364
(dp2365
g35
(I16
I16
tp2366
sg319
I00
sg320
I00
sg321
(iCoral
Coral
p2367
(dp2368
g15
g1586
sbsg322
I01
sbag0
(g314
g2
Ntp2369
Rp2370
(dp2371
g35
(I16
I17
tp2372
sg319
I00
sg320
I00
sg321
(iCoral
Coral
p2373
(dp2374
g15
g1586
sbsg322
I01
sbag0
(g314
g2
Ntp2375
Rp2376
(dp2377
g35
(I16
I18
tp2378
sg319
I00
sg320
I00
sg321
(iCoral
Coral
p2379
(dp2380
g15
g1586
sbsg322
I01
sbag0
(g314
g2
Ntp2381
Rp2382
(dp2383
g35
(I16
I19
tp2384
sg319
I00
sg320
I00
sg321
(iCoral
Coral
p2385
(dp2386
g15
g1586
sbsg322
I01
sbag0
(g314
g2
Ntp2387
Rp2388
(dp2389
g35
(I16
I20
tp2390
sg319
I00
sg320
I00
sg321
Nsg322
I00
sbag0
(g314
g2
Ntp2391
Rp2392
(dp2393
g35
(I16
I21
tp2394
sg319
I00
sg320
I00
sg321
Nsg322
I00
sbag0
(g314
g2
Ntp2395
Rp2396
(dp2397
g35
(I16
I22
tp2398
sg319
I00
sg320
I00
sg321
Nsg322
I00
sbag0
(g314
g2
Ntp2399
Rp2400
(dp2401
g35
(I16
I23
tp2402
sg319
I00
sg320
I00
sg321
Nsg322
I00
sbag0
(g314
g2
Ntp2403
Rp2404
(dp2405
g35
(I16
I24
tp2406
sg319
I00
sg320
I00
sg321
Nsg322
I00
sbag0
(g314
g2
Ntp2407
Rp2408
(dp2409
g35
(I16
I25
tp2410
sg319
I00
sg320
I00
sg321
Nsg322
I00
sbag0
(g314
g2
Ntp2411
Rp2412
(dp2413
g35
(I16
I26
tp2414
sg319
I00
sg320
I00
sg321
Nsg322
I00
sbag0
(g314
g2
Ntp2415
Rp2416
(dp2417
g35
(I16
I27
tp2418
sg319
I00
sg320
I00
sg321
Nsg322
I00
sbag0
(g314
g2
Ntp2419
Rp2420
(dp2421
g35
(I16
I28
tp2422
sg319
I00
sg320
I00
sg321
Nsg322
I00
sbag0
(g314
g2
Ntp2423
Rp2424
(dp2425
g35
(I16
I29
tp2426
sg319
I00
sg320
I00
sg321
Nsg322
I00
sbaa(lp2427
g0
(g314
g2
Ntp2428
Rp2429
(dp2430
g35
(I17
I0
tp2431
sg319
I00
sg320
I00
sg321
Nsg322
I00
sbag0
(g314
g2
Ntp2432
Rp2433
(dp2434
g35
(I17
I1
tp2435
sg319
I00
sg320
I00
sg321
Nsg322
I00
sbag0
(g314
g2
Ntp2436
Rp2437
(dp2438
g35
(I17
I2
tp2439
sg319
I00
sg320
I00
sg321
Nsg322
I00
sbag0
(g314
g2
Ntp2440
Rp2441
(dp2442
g35
(I17
I3
tp2443
sg319
I00
sg320
I00
sg321
Nsg322
I00
sbag0
(g314
g2
Ntp2444
Rp2445
(dp2446
g35
(I17
I4
tp2447
sg319
I00
sg320
I00
sg321
(iCoral
Coral
p2448
(dp2449
g15
g1586
sbsg322
I01
sbag0
(g314
g2
Ntp2450
Rp2451
(dp2452
g35
(I17
I5
tp2453
sg319
I00
sg320
I00
sg321
Nsg322
I00
sbag0
(g314
g2
Ntp2454
Rp2455
(dp2456
g35
(I17
I6
tp2457
sg319
I00
sg320
I00
sg321
Nsg322
I00
sbag0
(g314
g2
Ntp2458
Rp2459
(dp2460
g35
(I17
I7
tp2461
sg319
I00
sg320
I00
sg321
(iCoral
Coral
p2462
(dp2463
g15
g1586
sbsg322
I01
sbag0
(g314
g2
Ntp2464
Rp2465
(dp2466
g35
(I17
I8
tp2467
sg319
I00
sg320
I00
sg321
Nsg322
I00
sbag0
(g314
g2
Ntp2468
Rp2469
(dp2470
g35
(I17
I9
tp2471
sg319
I00
sg320
I00
sg321
Nsg322
I00
sbag0
(g314
g2
Ntp2472
Rp2473
(dp2474
g35
(I17
I10
tp2475
sg319
I00
sg320
I00
sg321
Nsg322
I01
sbag0
(g314
g2
Ntp2476
Rp2477
(dp2478
g35
(I17
I11
tp2479
sg319
I00
sg320
I00
sg321
Nsg322
I01
sbag0
(g314
g2
Ntp2480
Rp2481
(dp2482
g35
(I17
I12
tp2483
sg319
I00
sg320
I00
sg321
Nsg322
I01
sbag0
(g314
g2
Ntp2484
Rp2485
(dp2486
g35
(I17
I13
tp2487
sg319
I00
sg320
I00
sg321
Nsg322
I00
sbag0
(g314
g2
Ntp2488
Rp2489
(dp2490
g35
(I17
I14
tp2491
sg319
I00
sg320
I00
sg321
Nsg322
I00
sbag0
(g314
g2
Ntp2492
Rp2493
(dp2494
g35
(I17
I15
tp2495
sg319
I00
sg320
I00
sg321
Nsg322
I00
sbag0
(g314
g2
Ntp2496
Rp2497
(dp2498
g35
(I17
I16
tp2499
sg319
I00
sg320
I00
sg321
Nsg322
I00
sbag0
(g314
g2
Ntp2500
Rp2501
(dp2502
g35
(I17
I17
tp2503
sg319
I00
sg320
I00
sg321
Nsg322
I00
sbag0
(g314
g2
Ntp2504
Rp2505
(dp2506
g35
(I17
I18
tp2507
sg319
I00
sg320
I00
sg321
Nsg322
I00
sbag0
(g314
g2
Ntp2508
Rp2509
(dp2510
g35
(I17
I19
tp2511
sg319
I00
sg320
I00
sg321
Nsg322
I00
sbag0
(g314
g2
Ntp2512
Rp2513
(dp2514
g35
(I17
I20
tp2515
sg319
I00
sg320
I00
sg321
Nsg322
I00
sbag0
(g314
g2
Ntp2516
Rp2517
(dp2518
g35
(I17
I21
tp2519
sg319
I00
sg320
I00
sg321
Nsg322
I00
sbag0
(g314
g2
Ntp2520
Rp2521
(dp2522
g35
(I17
I22
tp2523
sg319
I00
sg320
I00
sg321
Nsg322
I00
sbag0
(g314
g2
Ntp2524
Rp2525
(dp2526
g35
(I17
I23
tp2527
sg319
I00
sg320
I00
sg321
Nsg322
I00
sbag0
(g314
g2
Ntp2528
Rp2529
(dp2530
g35
(I17
I24
tp2531
sg319
I00
sg320
I00
sg321
Nsg322
I00
sbag0
(g314
g2
Ntp2532
Rp2533
(dp2534
g35
(I17
I25
tp2535
sg319
I00
sg320
I00
sg321
Nsg322
I00
sbag0
(g314
g2
Ntp2536
Rp2537
(dp2538
g35
(I17
I26
tp2539
sg319
I00
sg320
I00
sg321
Nsg322
I00
sbag0
(g314
g2
Ntp2540
Rp2541
(dp2542
g35
(I17
I27
tp2543
sg319
I00
sg320
I00
sg321
Nsg322
I00
sbag0
(g314
g2
Ntp2544
Rp2545
(dp2546
g35
(I17
I28
tp2547
sg319
I00
sg320
I00
sg321
Nsg322
I00
sbag0
(g314
g2
Ntp2548
Rp2549
(dp2550
g35
(I17
I29
tp2551
sg319
I00
sg320
I00
sg321
Nsg322
I00
sbaa(lp2552
g0
(g314
g2
Ntp2553
Rp2554
(dp2555
g35
(I18
I0
tp2556
sg319
I00
sg320
I00
sg321
Nsg322
I00
sbag0
(g314
g2
Ntp2557
Rp2558
(dp2559
g35
(I18
I1
tp2560
sg319
I00
sg320
I00
sg321
Nsg322
I00
sbag0
(g314
g2
Ntp2561
Rp2562
(dp2563
g35
(I18
I2
tp2564
sg319
I00
sg320
I00
sg321
Nsg322
I00
sbag0
(g314
g2
Ntp2565
Rp2566
(dp2567
g35
(I18
I3
tp2568
sg319
I00
sg320
I00
sg321
Nsg322
I00
sbag0
(g314
g2
Ntp2569
Rp2570
(dp2571
g35
(I18
I4
tp2572
sg319
I00
sg320
I00
sg321
Nsg322
I00
sbag0
(g314
g2
Ntp2573
Rp2574
(dp2575
g35
(I18
I5
tp2576
sg319
I00
sg320
I00
sg321
Nsg322
I00
sbag0
(g314
g2
Ntp2577
Rp2578
(dp2579
g35
(I18
I6
tp2580
sg319
I00
sg320
I00
sg321
Nsg322
I00
sbag0
(g314
g2
Ntp2581
Rp2582
(dp2583
g35
(I18
I7
tp2584
sg319
I00
sg320
I00
sg321
Nsg322
I00
sbag0
(g314
g2
Ntp2585
Rp2586
(dp2587
g35
(I18
I8
tp2588
sg319
I00
sg320
I00
sg321
Nsg322
I00
sbag0
(g314
g2
Ntp2589
Rp2590
(dp2591
g35
(I18
I9
tp2592
sg319
I00
sg320
I00
sg321
Nsg322
I00
sbag0
(g314
g2
Ntp2593
Rp2594
(dp2595
g35
(I18
I10
tp2596
sg319
I00
sg320
I00
sg321
(iCoral
Coral
p2597
(dp2598
g15
g1586
sbsg322
I01
sbag0
(g314
g2
Ntp2599
Rp2600
(dp2601
g35
(I18
I11
tp2602
sg319
I00
sg320
I00
sg321
g10
sg322
I01
sbag0
(g314
g2
Ntp2603
Rp2604
(dp2605
g35
(I18
I12
tp2606
sg319
I00
sg320
I00
sg321
Nsg322
I01
sbag0
(g314
g2
Ntp2607
Rp2608
(dp2609
g35
(I18
I13
tp2610
sg319
I00
sg320
I00
sg321
Nsg322
I00
sbag0
(g314
g2
Ntp2611
Rp2612
(dp2613
g35
(I18
I14
tp2614
sg319
I00
sg320
I00
sg321
(iCoral
Coral
p2615
(dp2616
g15
g1586
sbsg322
I01
sbag0
(g314
g2
Ntp2617
Rp2618
(dp2619
g35
(I18
I15
tp2620
sg319
I00
sg320
I00
sg321
Nsg322
I00
sbag0
(g314
g2
Ntp2621
Rp2622
(dp2623
g35
(I18
I16
tp2624
sg319
I00
sg320
I00
sg321
Nsg322
I00
sbag0
(g314
g2
Ntp2625
Rp2626
(dp2627
g35
(I18
I17
tp2628
sg319
I00
sg320
I00
sg321
Nsg322
I00
sbag0
(g314
g2
Ntp2629
Rp2630
(dp2631
g35
(I18
I18
tp2632
sg319
I00
sg320
I00
sg321
Nsg322
I00
sbag0
(g314
g2
Ntp2633
Rp2634
(dp2635
g35
(I18
I19
tp2636
sg319
I00
sg320
I00
sg321
Nsg322
I00
sbag0
(g314
g2
Ntp2637
Rp2638
(dp2639
g35
(I18
I20
tp2640
sg319
I00
sg320
I00
sg321
Nsg322
I00
sbag0
(g314
g2
Ntp2641
Rp2642
(dp2643
g35
(I18
I21
tp2644
sg319
I00
sg320
I00
sg321
Nsg322
I00
sbag0
(g314
g2
Ntp2645
Rp2646
(dp2647
g35
(I18
I22
tp2648
sg319
I00
sg320
I00
sg321
Nsg322
I00
sbag0
(g314
g2
Ntp2649
Rp2650
(dp2651
g35
(I18
I23
tp2652
sg319
I00
sg320
I00
sg321
Nsg322
I00
sbag0
(g314
g2
Ntp2653
Rp2654
(dp2655
g35
(I18
I24
tp2656
sg319
I00
sg320
I00
sg321
Nsg322
I00
sbag0
(g314
g2
Ntp2657
Rp2658
(dp2659
g35
(I18
I25
tp2660
sg319
I00
sg320
I00
sg321
Nsg322
I00
sbag0
(g314
g2
Ntp2661
Rp2662
(dp2663
g35
(I18
I26
tp2664
sg319
I00
sg320
I00
sg321
(iCoral
Coral
p2665
(dp2666
g15
g1586
sbsg322
I01
sbag0
(g314
g2
Ntp2667
Rp2668
(dp2669
g35
(I18
I27
tp2670
sg319
I00
sg320
I00
sg321
Nsg322
I00
sbag0
(g314
g2
Ntp2671
Rp2672
(dp2673
g35
(I18
I28
tp2674
sg319
I00
sg320
I00
sg321
Nsg322
I00
sbag0
(g314
g2
Ntp2675
Rp2676
(dp2677
g35
(I18
I29
tp2678
sg319
I00
sg320
I00
sg321
Nsg322
I00
sbaa(lp2679
g0
(g314
g2
Ntp2680
Rp2681
(dp2682
g35
(I19
I0
tp2683
sg319
I00
sg320
I00
sg321
Nsg322
I00
sbag0
(g314
g2
Ntp2684
Rp2685
(dp2686
g35
(I19
I1
tp2687
sg319
I00
sg320
I00
sg321
Nsg322
I00
sbag0
(g314
g2
Ntp2688
Rp2689
(dp2690
g35
(I19
I2
tp2691
sg319
I00
sg320
I00
sg321
Nsg322
I00
sbag0
(g314
g2
Ntp2692
Rp2693
(dp2694
g35
(I19
I3
tp2695
sg319
I00
sg320
I00
sg321
Nsg322
I00
sbag0
(g314
g2
Ntp2696
Rp2697
(dp2698
g35
(I19
I4
tp2699
sg319
I00
sg320
I00
sg321
Nsg322
I00
sbag0
(g314
g2
Ntp2700
Rp2701
(dp2702
g35
(I19
I5
tp2703
sg319
I00
sg320
I00
sg321
Nsg322
I00
sbag0
(g314
g2
Ntp2704
Rp2705
(dp2706
g35
(I19
I6
tp2707
sg319
I00
sg320
I00
sg321
Nsg322
I00
sbag0
(g314
g2
Ntp2708
Rp2709
(dp2710
g35
(I19
I7
tp2711
sg319
I00
sg320
I00
sg321
Nsg322
I00
sbag0
(g314
g2
Ntp2712
Rp2713
(dp2714
g35
(I19
I8
tp2715
sg319
I00
sg320
I00
sg321
Nsg322
I00
sbag0
(g314
g2
Ntp2716
Rp2717
(dp2718
g35
(I19
I9
tp2719
sg319
I00
sg320
I00
sg321
Nsg322
I00
sbag0
(g314
g2
Ntp2720
Rp2721
(dp2722
g35
(I19
I10
tp2723
sg319
I00
sg320
I00
sg321
Nsg322
I01
sbag0
(g314
g2
Ntp2724
Rp2725
(dp2726
g35
(I19
I11
tp2727
sg319
I00
sg320
I00
sg321
g10
sg322
I01
sbag0
(g314
g2
Ntp2728
Rp2729
(dp2730
g35
(I19
I12
tp2731
sg319
I00
sg320
I00
sg321
Nsg322
I01
sbag0
(g314
g2
Ntp2732
Rp2733
(dp2734
g35
(I19
I13
tp2735
sg319
I00
sg320
I00
sg321
Nsg322
I00
sbag0
(g314
g2
Ntp2736
Rp2737
(dp2738
g35
(I19
I14
tp2739
sg319
I00
sg320
I00
sg321
Nsg322
I00
sbag0
(g314
g2
Ntp2740
Rp2741
(dp2742
g35
(I19
I15
tp2743
sg319
I00
sg320
I00
sg321
Nsg322
I00
sbag0
(g314
g2
Ntp2744
Rp2745
(dp2746
g35
(I19
I16
tp2747
sg319
I00
sg320
I00
sg321
Nsg322
I00
sbag0
(g314
g2
Ntp2748
Rp2749
(dp2750
g35
(I19
I17
tp2751
sg319
I00
sg320
I00
sg321
Nsg322
I00
sbag0
(g314
g2
Ntp2752
Rp2753
(dp2754
g35
(I19
I18
tp2755
sg319
I00
sg320
I00
sg321
Nsg322
I00
sbag0
(g314
g2
Ntp2756
Rp2757
(dp2758
g35
(I19
I19
tp2759
sg319
I00
sg320
I00
sg321
Nsg322
I00
sbag0
(g314
g2
Ntp2760
Rp2761
(dp2762
g35
(I19
I20
tp2763
sg319
I00
sg320
I00
sg321
Nsg322
I00
sbag0
(g314
g2
Ntp2764
Rp2765
(dp2766
g35
(I19
I21
tp2767
sg319
I00
sg320
I00
sg321
(iCoral
Coral
p2768
(dp2769
g15
g1586
sbsg322
I01
sbag0
(g314
g2
Ntp2770
Rp2771
(dp2772
g35
(I19
I22
tp2773
sg319
I00
sg320
I00
sg321
Nsg322
I00
sbag0
(g314
g2
Ntp2774
Rp2775
(dp2776
g35
(I19
I23
tp2777
sg319
I00
sg320
I00
sg321
Nsg322
I00
sbag0
(g314
g2
Ntp2778
Rp2779
(dp2780
g35
(I19
I24
tp2781
sg319
I00
sg320
I00
sg321
Nsg322
I00
sbag0
(g314
g2
Ntp2782
Rp2783
(dp2784
g35
(I19
I25
tp2785
sg319
I00
sg320
I00
sg321
Nsg322
I00
sbag0
(g314
g2
Ntp2786
Rp2787
(dp2788
g35
(I19
I26
tp2789
sg319
I00
sg320
I00
sg321
Nsg322
I00
sbag0
(g314
g2
Ntp2790
Rp2791
(dp2792
g35
(I19
I27
tp2793
sg319
I00
sg320
I00
sg321
Nsg322
I00
sbag0
(g314
g2
Ntp2794
Rp2795
(dp2796
g35
(I19
I28
tp2797
sg319
I00
sg320
I00
sg321
Nsg322
I00
sbag0
(g314
g2
Ntp2798
Rp2799
(dp2800
g35
(I19
I29
tp2801
sg319
I00
sg320
I00
sg321
Nsg322
I00
sbaa(lp2802
g0
(g314
g2
Ntp2803
Rp2804
(dp2805
g35
(I20
I0
tp2806
sg319
I00
sg320
I00
sg321
Nsg322
I00
sbag0
(g314
g2
Ntp2807
Rp2808
(dp2809
g35
(I20
I1
tp2810
sg319
I00
sg320
I00
sg321
Nsg322
I00
sbag0
(g314
g2
Ntp2811
Rp2812
(dp2813
g35
(I20
I2
tp2814
sg319
I00
sg320
I00
sg321
Nsg322
I00
sbag0
(g314
g2
Ntp2815
Rp2816
(dp2817
g35
(I20
I3
tp2818
sg319
I00
sg320
I00
sg321
Nsg322
I00
sbag0
(g314
g2
Ntp2819
Rp2820
(dp2821
g35
(I20
I4
tp2822
sg319
I00
sg320
I00
sg321
Nsg322
I00
sbag0
(g314
g2
Ntp2823
Rp2824
(dp2825
g35
(I20
I5
tp2826
sg319
I00
sg320
I00
sg321
Nsg322
I00
sbag0
(g314
g2
Ntp2827
Rp2828
(dp2829
g35
(I20
I6
tp2830
sg319
I00
sg320
I00
sg321
Nsg322
I00
sbag0
(g314
g2
Ntp2831
Rp2832
(dp2833
g35
(I20
I7
tp2834
sg319
I00
sg320
I00
sg321
Nsg322
I00
sbag0
(g314
g2
Ntp2835
Rp2836
(dp2837
g35
(I20
I8
tp2838
sg319
I00
sg320
I00
sg321
Nsg322
I00
sbag0
(g314
g2
Ntp2839
Rp2840
(dp2841
g35
(I20
I9
tp2842
sg319
I00
sg320
I00
sg321
Nsg322
I00
sbag0
(g314
g2
Ntp2843
Rp2844
(dp2845
g35
(I20
I10
tp2846
sg319
I00
sg320
I00
sg321
Nsg322
I01
sbag0
(g314
g2
Ntp2847
Rp2848
(dp2849
g35
(I20
I11
tp2850
sg319
I00
sg320
I00
sg321
g10
sg322
I01
sbag0
(g314
g2
Ntp2851
Rp2852
(dp2853
g35
(I20
I12
tp2854
sg319
I00
sg320
I00
sg321
Nsg322
I01
sbag0
(g314
g2
Ntp2855
Rp2856
(dp2857
g35
(I20
I13
tp2858
sg319
I00
sg320
I00
sg321
Nsg322
I01
sbag0
(g314
g2
Ntp2859
Rp2860
(dp2861
g35
(I20
I14
tp2862
sg319
I00
sg320
I00
sg321
Nsg322
I01
sbag0
(g314
g2
Ntp2863
Rp2864
(dp2865
g35
(I20
I15
tp2866
sg319
I00
sg320
I00
sg321
Nsg322
I01
sbag0
(g314
g2
Ntp2867
Rp2868
(dp2869
g35
(I20
I16
tp2870
sg319
I00
sg320
I00
sg321
Nsg322
I00
sbag0
(g314
g2
Ntp2871
Rp2872
(dp2873
g35
(I20
I17
tp2874
sg319
I00
sg320
I00
sg321
Nsg322
I00
sbag0
(g314
g2
Ntp2875
Rp2876
(dp2877
g35
(I20
I18
tp2878
sg319
I00
sg320
I00
sg321
Nsg322
I00
sbag0
(g314
g2
Ntp2879
Rp2880
(dp2881
g35
(I20
I19
tp2882
sg319
I00
sg320
I00
sg321
Nsg322
I00
sbag0
(g314
g2
Ntp2883
Rp2884
(dp2885
g35
(I20
I20
tp2886
sg319
I00
sg320
I00
sg321
Nsg322
I00
sbag0
(g314
g2
Ntp2887
Rp2888
(dp2889
g35
(I20
I21
tp2890
sg319
I00
sg320
I00
sg321
Nsg322
I00
sbag0
(g314
g2
Ntp2891
Rp2892
(dp2893
g35
(I20
I22
tp2894
sg319
I00
sg320
I00
sg321
Nsg322
I00
sbag0
(g314
g2
Ntp2895
Rp2896
(dp2897
g35
(I20
I23
tp2898
sg319
I00
sg320
I00
sg321
Nsg322
I00
sbag0
(g314
g2
Ntp2899
Rp2900
(dp2901
g35
(I20
I24
tp2902
sg319
I00
sg320
I00
sg321
Nsg322
I00
sbag0
(g314
g2
Ntp2903
Rp2904
(dp2905
g35
(I20
I25
tp2906
sg319
I00
sg320
I00
sg321
Nsg322
I00
sbag0
(g314
g2
Ntp2907
Rp2908
(dp2909
g35
(I20
I26
tp2910
sg319
I00
sg320
I00
sg321
Nsg322
I00
sbag0
(g314
g2
Ntp2911
Rp2912
(dp2913
g35
(I20
I27
tp2914
sg319
I00
sg320
I00
sg321
Nsg322
I00
sbag0
(g314
g2
Ntp2915
Rp2916
(dp2917
g35
(I20
I28
tp2918
sg319
I00
sg320
I00
sg321
Nsg322
I00
sbag0
(g314
g2
Ntp2919
Rp2920
(dp2921
g35
(I20
I29
tp2922
sg319
I00
sg320
I00
sg321
Nsg322
I00
sbaa(lp2923
g0
(g314
g2
Ntp2924
Rp2925
(dp2926
g35
(I21
I0
tp2927
sg319
I00
sg320
I00
sg321
Nsg322
I00
sbag0
(g314
g2
Ntp2928
Rp2929
(dp2930
g35
(I21
I1
tp2931
sg319
I00
sg320
I00
sg321
Nsg322
I00
sbag0
(g314
g2
Ntp2932
Rp2933
(dp2934
g35
(I21
I2
tp2935
sg319
I00
sg320
I00
sg321
Nsg322
I00
sbag0
(g314
g2
Ntp2936
Rp2937
(dp2938
g35
(I21
I3
tp2939
sg319
I00
sg320
I00
sg321
Nsg322
I00
sbag0
(g314
g2
Ntp2940
Rp2941
(dp2942
g35
(I21
I4
tp2943
sg319
I00
sg320
I00
sg321
Nsg322
I00
sbag0
(g314
g2
Ntp2944
Rp2945
(dp2946
g35
(I21
I5
tp2947
sg319
I00
sg320
I00
sg321
Nsg322
I00
sbag0
(g314
g2
Ntp2948
Rp2949
(dp2950
g35
(I21
I6
tp2951
sg319
I00
sg320
I00
sg321
Nsg322
I00
sbag0
(g314
g2
Ntp2952
Rp2953
(dp2954
g35
(I21
I7
tp2955
sg319
I00
sg320
I00
sg321
Nsg322
I00
sbag0
(g314
g2
Ntp2956
Rp2957
(dp2958
g35
(I21
I8
tp2959
sg319
I00
sg320
I00
sg321
Nsg322
I00
sbag0
(g314
g2
Ntp2960
Rp2961
(dp2962
g35
(I21
I9
tp2963
sg319
I00
sg320
I00
sg321
Nsg322
I00
sbag0
(g314
g2
Ntp2964
Rp2965
(dp2966
g35
(I21
I10
tp2967
sg319
I00
sg320
I00
sg321
Nsg322
I01
sbag0
(g314
g2
Ntp2968
Rp2969
(dp2970
g35
(I21
I11
tp2971
sg319
I00
sg320
I00
sg321
g10
sg322
I01
sbag0
(g314
g2
Ntp2972
Rp2973
(dp2974
g35
(I21
I12
tp2975
sg319
I00
sg320
I00
sg321
Nsg322
I01
sbag0
(g314
g2
Ntp2976
Rp2977
(dp2978
g35
(I21
I13
tp2979
sg319
I00
sg320
I00
sg321
Nsg322
I01
sbag0
(g314
g2
Ntp2980
Rp2981
(dp2982
g35
(I21
I14
tp2983
sg319
I00
sg320
I00
sg321
Nsg322
I01
sbag0
(g314
g2
Ntp2984
Rp2985
(dp2986
g35
(I21
I15
tp2987
sg319
I00
sg320
I00
sg321
Nsg322
I01
sbag0
(g314
g2
Ntp2988
Rp2989
(dp2990
g35
(I21
I16
tp2991
sg319
I00
sg320
I00
sg321
Nsg322
I00
sbag0
(g314
g2
Ntp2992
Rp2993
(dp2994
g35
(I21
I17
tp2995
sg319
I00
sg320
I00
sg321
Nsg322
I00
sbag0
(g314
g2
Ntp2996
Rp2997
(dp2998
g35
(I21
I18
tp2999
sg319
I00
sg320
I00
sg321
Nsg322
I00
sbag0
(g314
g2
Ntp3000
Rp3001
(dp3002
g35
(I21
I19
tp3003
sg319
I00
sg320
I00
sg321
Nsg322
I00
sbag0
(g314
g2
Ntp3004
Rp3005
(dp3006
g35
(I21
I20
tp3007
sg319
I00
sg320
I00
sg321
Nsg322
I00
sbag0
(g314
g2
Ntp3008
Rp3009
(dp3010
g35
(I21
I21
tp3011
sg319
I00
sg320
I00
sg321
Nsg322
I00
sbag0
(g314
g2
Ntp3012
Rp3013
(dp3014
g35
(I21
I22
tp3015
sg319
I00
sg320
I00
sg321
Nsg322
I00
sbag0
(g314
g2
Ntp3016
Rp3017
(dp3018
g35
(I21
I23
tp3019
sg319
I00
sg320
I00
sg321
Nsg322
I00
sbag0
(g314
g2
Ntp3020
Rp3021
(dp3022
g35
(I21
I24
tp3023
sg319
I00
sg320
I00
sg321
Nsg322
I00
sbag0
(g314
g2
Ntp3024
Rp3025
(dp3026
g35
(I21
I25
tp3027
sg319
I00
sg320
I00
sg321
Nsg322
I00
sbag0
(g314
g2
Ntp3028
Rp3029
(dp3030
g35
(I21
I26
tp3031
sg319
I00
sg320
I00
sg321
Nsg322
I00
sbag0
(g314
g2
Ntp3032
Rp3033
(dp3034
g35
(I21
I27
tp3035
sg319
I00
sg320
I00
sg321
Nsg322
I00
sbag0
(g314
g2
Ntp3036
Rp3037
(dp3038
g35
(I21
I28
tp3039
sg319
I00
sg320
I00
sg321
Nsg322
I00
sbag0
(g314
g2
Ntp3040
Rp3041
(dp3042
g35
(I21
I29
tp3043
sg319
I00
sg320
I00
sg321
Nsg322
I00
sbaa(lp3044
g0
(g314
g2
Ntp3045
Rp3046
(dp3047
g35
(I22
I0
tp3048
sg319
I00
sg320
I00
sg321
Nsg322
I00
sbag0
(g314
g2
Ntp3049
Rp3050
(dp3051
g35
(I22
I1
tp3052
sg319
I00
sg320
I00
sg321
Nsg322
I00
sbag0
(g314
g2
Ntp3053
Rp3054
(dp3055
g35
(I22
I2
tp3056
sg319
I00
sg320
I00
sg321
Nsg322
I00
sbag0
(g314
g2
Ntp3057
Rp3058
(dp3059
g35
(I22
I3
tp3060
sg319
I00
sg320
I00
sg321
Nsg322
I00
sbag0
(g314
g2
Ntp3061
Rp3062
(dp3063
g35
(I22
I4
tp3064
sg319
I00
sg320
I00
sg321
Nsg322
I00
sbag0
(g314
g2
Ntp3065
Rp3066
(dp3067
g35
(I22
I5
tp3068
sg319
I00
sg320
I00
sg321
Nsg322
I00
sbag0
(g314
g2
Ntp3069
Rp3070
(dp3071
g35
(I22
I6
tp3072
sg319
I00
sg320
I00
sg321
Nsg322
I00
sbag0
(g314
g2
Ntp3073
Rp3074
(dp3075
g35
(I22
I7
tp3076
sg319
I00
sg320
I00
sg321
Nsg322
I00
sbag0
(g314
g2
Ntp3077
Rp3078
(dp3079
g35
(I22
I8
tp3080
sg319
I00
sg320
I00
sg321
Nsg322
I00
sbag0
(g314
g2
Ntp3081
Rp3082
(dp3083
g35
(I22
I9
tp3084
sg319
I00
sg320
I00
sg321
Nsg322
I00
sbag0
(g314
g2
Ntp3085
Rp3086
(dp3087
g35
(I22
I10
tp3088
sg319
I00
sg320
I00
sg321
Nsg322
I01
sbag0
(g314
g2
Ntp3089
Rp3090
(dp3091
g35
(I22
I11
tp3092
sg319
I00
sg320
I00
sg321
g10
sg322
I01
sbag0
(g314
g2
Ntp3093
Rp3094
(dp3095
g35
(I22
I12
tp3096
sg319
I00
sg320
I00
sg321
Nsg322
I01
sbag0
(g314
g2
Ntp3097
Rp3098
(dp3099
g35
(I22
I13
tp3100
sg319
I00
sg320
I00
sg321
Nsg322
I01
sbag0
(g314
g2
Ntp3101
Rp3102
(dp3103
g35
(I22
I14
tp3104
sg319
I00
sg320
I00
sg321
Nsg322
I01
sbag0
(g314
g2
Ntp3105
Rp3106
(dp3107
g35
(I22
I15
tp3108
sg319
I00
sg320
I00
sg321
Nsg322
I01
sbag0
(g314
g2
Ntp3109
Rp3110
(dp3111
g35
(I22
I16
tp3112
sg319
I00
sg320
I00
sg321
Nsg322
I01
sbag0
(g314
g2
Ntp3113
Rp3114
(dp3115
g35
(I22
I17
tp3116
sg319
I00
sg320
I00
sg321
Nsg322
I01
sbag0
(g314
g2
Ntp3117
Rp3118
(dp3119
g35
(I22
I18
tp3120
sg319
I00
sg320
I00
sg321
Nsg322
I01
sbag0
(g314
g2
Ntp3121
Rp3122
(dp3123
g35
(I22
I19
tp3124
sg319
I00
sg320
I00
sg321
Nsg322
I00
sbag0
(g314
g2
Ntp3125
Rp3126
(dp3127
g35
(I22
I20
tp3128
sg319
I00
sg320
I00
sg321
Nsg322
I00
sbag0
(g314
g2
Ntp3129
Rp3130
(dp3131
g35
(I22
I21
tp3132
sg319
I00
sg320
I00
sg321
Nsg322
I00
sbag0
(g314
g2
Ntp3133
Rp3134
(dp3135
g35
(I22
I22
tp3136
sg319
I00
sg320
I00
sg321
Nsg322
I00
sbag0
(g314
g2
Ntp3137
Rp3138
(dp3139
g35
(I22
I23
tp3140
sg319
I00
sg320
I00
sg321
Nsg322
I00
sbag0
(g314
g2
Ntp3141
Rp3142
(dp3143
g35
(I22
I24
tp3144
sg319
I00
sg320
I00
sg321
Nsg322
I00
sbag0
(g314
g2
Ntp3145
Rp3146
(dp3147
g35
(I22
I25
tp3148
sg319
I00
sg320
I00
sg321
Nsg322
I00
sbag0
(g314
g2
Ntp3149
Rp3150
(dp3151
g35
(I22
I26
tp3152
sg319
I00
sg320
I00
sg321
Nsg322
I00
sbag0
(g314
g2
Ntp3153
Rp3154
(dp3155
g35
(I22
I27
tp3156
sg319
I00
sg320
I00
sg321
Nsg322
I00
sbag0
(g314
g2
Ntp3157
Rp3158
(dp3159
g35
(I22
I28
tp3160
sg319
I00
sg320
I00
sg321
Nsg322
I00
sbag0
(g314
g2
Ntp3161
Rp3162
(dp3163
g35
(I22
I29
tp3164
sg319
I00
sg320
I00
sg321
Nsg322
I00
sbaa(lp3165
g0
(g314
g2
Ntp3166
Rp3167
(dp3168
g35
(I23
I0
tp3169
sg319
I00
sg320
I00
sg321
Nsg322
I00
sbag0
(g314
g2
Ntp3170
Rp3171
(dp3172
g35
(I23
I1
tp3173
sg319
I00
sg320
I00
sg321
Nsg322
I00
sbag0
(g314
g2
Ntp3174
Rp3175
(dp3176
g35
(I23
I2
tp3177
sg319
I00
sg320
I00
sg321
Nsg322
I00
sbag0
(g314
g2
Ntp3178
Rp3179
(dp3180
g35
(I23
I3
tp3181
sg319
I00
sg320
I00
sg321
Nsg322
I00
sbag0
(g314
g2
Ntp3182
Rp3183
(dp3184
g35
(I23
I4
tp3185
sg319
I00
sg320
I00
sg321
Nsg322
I00
sbag0
(g314
g2
Ntp3186
Rp3187
(dp3188
g35
(I23
I5
tp3189
sg319
I00
sg320
I00
sg321
Nsg322
I00
sbag0
(g314
g2
Ntp3190
Rp3191
(dp3192
g35
(I23
I6
tp3193
sg319
I00
sg320
I00
sg321
Nsg322
I00
sbag0
(g314
g2
Ntp3194
Rp3195
(dp3196
g35
(I23
I7
tp3197
sg319
I00
sg320
I00
sg321
Nsg322
I00
sbag0
(g314
g2
Ntp3198
Rp3199
(dp3200
g35
(I23
I8
tp3201
sg319
I00
sg320
I00
sg321
Nsg322
I00
sbag0
(g314
g2
Ntp3202
Rp3203
(dp3204
g35
(I23
I9
tp3205
sg319
I00
sg320
I00
sg321
Nsg322
I00
sbag0
(g314
g2
Ntp3206
Rp3207
(dp3208
g35
(I23
I10
tp3209
sg319
I00
sg320
I00
sg321
Nsg322
I01
sbag0
(g314
g2
Ntp3210
Rp3211
(dp3212
g35
(I23
I11
tp3213
sg319
I00
sg320
I00
sg321
Nsg322
I01
sbag0
(g314
g2
Ntp3214
Rp3215
(dp3216
g35
(I23
I12
tp3217
sg319
I00
sg320
I00
sg321
Nsg322
I01
sbag0
(g314
g2
Ntp3218
Rp3219
(dp3220
g35
(I23
I13
tp3221
sg319
I00
sg320
I00
sg321
Nsg322
I01
sbag0
(g314
g2
Ntp3222
Rp3223
(dp3224
g35
(I23
I14
tp3225
sg319
I00
sg320
I00
sg321
Nsg322
I01
sbag0
(g314
g2
Ntp3226
Rp3227
(dp3228
g35
(I23
I15
tp3229
sg319
I00
sg320
I00
sg321
Nsg322
I01
sbag0
(g314
g2
Ntp3230
Rp3231
(dp3232
g35
(I23
I16
tp3233
sg319
I00
sg320
I00
sg321
Nsg322
I01
sbag0
(g314
g2
Ntp3234
Rp3235
(dp3236
g35
(I23
I17
tp3237
sg319
I00
sg320
I00
sg321
Nsg322
I01
sbag0
(g314
g2
Ntp3238
Rp3239
(dp3240
g35
(I23
I18
tp3241
sg319
I00
sg320
I00
sg321
Nsg322
I01
sbag0
(g314
g2
Ntp3242
Rp3243
(dp3244
g35
(I23
I19
tp3245
sg319
I00
sg320
I00
sg321
Nsg322
I00
sbag0
(g314
g2
Ntp3246
Rp3247
(dp3248
g35
(I23
I20
tp3249
sg319
I00
sg320
I00
sg321
Nsg322
I00
sbag0
(g314
g2
Ntp3250
Rp3251
(dp3252
g35
(I23
I21
tp3253
sg319
I00
sg320
I00
sg321
Nsg322
I00
sbag0
(g314
g2
Ntp3254
Rp3255
(dp3256
g35
(I23
I22
tp3257
sg319
I00
sg320
I00
sg321
Nsg322
I00
sbag0
(g314
g2
Ntp3258
Rp3259
(dp3260
g35
(I23
I23
tp3261
sg319
I00
sg320
I00
sg321
Nsg322
I00
sbag0
(g314
g2
Ntp3262
Rp3263
(dp3264
g35
(I23
I24
tp3265
sg319
I00
sg320
I00
sg321
Nsg322
I00
sbag0
(g314
g2
Ntp3266
Rp3267
(dp3268
g35
(I23
I25
tp3269
sg319
I00
sg320
I00
sg321
Nsg322
I00
sbag0
(g314
g2
Ntp3270
Rp3271
(dp3272
g35
(I23
I26
tp3273
sg319
I00
sg320
I00
sg321
Nsg322
I00
sbag0
(g314
g2
Ntp3274
Rp3275
(dp3276
g35
(I23
I27
tp3277
sg319
I00
sg320
I00
sg321
Nsg322
I00
sbag0
(g314
g2
Ntp3278
Rp3279
(dp3280
g35
(I23
I28
tp3281
sg319
I00
sg320
I00
sg321
Nsg322
I00
sbag0
(g314
g2
Ntp3282
Rp3283
(dp3284
g35
(I23
I29
tp3285
sg319
I00
sg320
I00
sg321
Nsg322
I00
sbaa(lp3286
g0
(g314
g2
Ntp3287
Rp3288
(dp3289
g35
(I24
I0
tp3290
sg319
I00
sg320
I00
sg321
Nsg322
I00
sbag0
(g314
g2
Ntp3291
Rp3292
(dp3293
g35
(I24
I1
tp3294
sg319
I00
sg320
I00
sg321
Nsg322
I00
sbag0
(g314
g2
Ntp3295
Rp3296
(dp3297
g35
(I24
I2
tp3298
sg319
I00
sg320
I00
sg321
Nsg322
I00
sbag0
(g314
g2
Ntp3299
Rp3300
(dp3301
g35
(I24
I3
tp3302
sg319
I00
sg320
I00
sg321
Nsg322
I00
sbag0
(g314
g2
Ntp3303
Rp3304
(dp3305
g35
(I24
I4
tp3306
sg319
I00
sg320
I00
sg321
Nsg322
I00
sbag0
(g314
g2
Ntp3307
Rp3308
(dp3309
g35
(I24
I5
tp3310
sg319
I00
sg320
I00
sg321
Nsg322
I00
sbag0
(g314
g2
Ntp3311
Rp3312
(dp3313
g35
(I24
I6
tp3314
sg319
I00
sg320
I00
sg321
Nsg322
I00
sbag0
(g314
g2
Ntp3315
Rp3316
(dp3317
g35
(I24
I7
tp3318
sg319
I00
sg320
I00
sg321
Nsg322
I00
sbag0
(g314
g2
Ntp3319
Rp3320
(dp3321
g35
(I24
I8
tp3322
sg319
I00
sg320
I00
sg321
Nsg322
I00
sbag0
(g314
g2
Ntp3323
Rp3324
(dp3325
g35
(I24
I9
tp3326
sg319
I00
sg320
I00
sg321
Nsg322
I00
sbag0
(g314
g2
Ntp3327
Rp3328
(dp3329
g35
(I24
I10
tp3330
sg319
I00
sg320
I00
sg321
Nsg322
I01
sbag0
(g314
g2
Ntp3331
Rp3332
(dp3333
g35
(I24
I11
tp3334
sg319
I00
sg320
I00
sg321
g46
sg322
I01
sbag0
(g314
g2
Ntp3335
Rp3336
(dp3337
g35
(I24
I12
tp3338
sg319
I00
sg320
I00
sg321
Nsg322
I01
sbag0
(g314
g2
Ntp3339
Rp3340
(dp3341
g35
(I24
I13
tp3342
sg319
I00
sg320
I00
sg321
Nsg322
I01
sbag0
(g314
g2
Ntp3343
Rp3344
(dp3345
g35
(I24
I14
tp3346
sg319
I00
sg320
I00
sg321
Nsg322
I01
sbag0
(g314
g2
Ntp3347
Rp3348
(dp3349
g35
(I24
I15
tp3350
sg319
I00
sg320
I00
sg321
Nsg322
I01
sbag0
(g314
g2
Ntp3351
Rp3352
(dp3353
g35
(I24
I16
tp3354
sg319
I00
sg320
I00
sg321
Nsg322
I01
sbag0
(g314
g2
Ntp3355
Rp3356
(dp3357
g35
(I24
I17
tp3358
sg319
I00
sg320
I00
sg321
Nsg322
I01
sbag0
(g314
g2
Ntp3359
Rp3360
(dp3361
g35
(I24
I18
tp3362
sg319
I00
sg320
I00
sg321
Nsg322
I01
sbag0
(g314
g2
Ntp3363
Rp3364
(dp3365
g35
(I24
I19
tp3366
sg319
I00
sg320
I00
sg321
Nsg322
I00
sbag0
(g314
g2
Ntp3367
Rp3368
(dp3369
g35
(I24
I20
tp3370
sg319
I00
sg320
I00
sg321
Nsg322
I00
sbag0
(g314
g2
Ntp3371
Rp3372
(dp3373
g35
(I24
I21
tp3374
sg319
I00
sg320
I00
sg321
Nsg322
I00
sbag0
(g314
g2
Ntp3375
Rp3376
(dp3377
g35
(I24
I22
tp3378
sg319
I00
sg320
I00
sg321
Nsg322
I00
sbag0
(g314
g2
Ntp3379
Rp3380
(dp3381
g35
(I24
I23
tp3382
sg319
I00
sg320
I00
sg321
Nsg322
I00
sbag0
(g314
g2
Ntp3383
Rp3384
(dp3385
g35
(I24
I24
tp3386
sg319
I00
sg320
I00
sg321
Nsg322
I00
sbag0
(g314
g2
Ntp3387
Rp3388
(dp3389
g35
(I24
I25
tp3390
sg319
I00
sg320
I00
sg321
Nsg322
I00
sbag0
(g314
g2
Ntp3391
Rp3392
(dp3393
g35
(I24
I26
tp3394
sg319
I00
sg320
I00
sg321
Nsg322
I00
sbag0
(g314
g2
Ntp3395
Rp3396
(dp3397
g35
(I24
I27
tp3398
sg319
I00
sg320
I00
sg321
Nsg322
I00
sbag0
(g314
g2
Ntp3399
Rp3400
(dp3401
g35
(I24
I28
tp3402
sg319
I00
sg320
I00
sg321
Nsg322
I00
sbag0
(g314
g2
Ntp3403
Rp3404
(dp3405
g35
(I24
I29
tp3406
sg319
I00
sg320
I00
sg321
Nsg322
I00
sbaa(lp3407
g0
(g314
g2
Ntp3408
Rp3409
(dp3410
g35
(I25
I0
tp3411
sg319
I00
sg320
I00
sg321
Nsg322
I00
sbag0
(g314
g2
Ntp3412
Rp3413
(dp3414
g35
(I25
I1
tp3415
sg319
I00
sg320
I00
sg321
Nsg322
I00
sbag0
(g314
g2
Ntp3416
Rp3417
(dp3418
g35
(I25
I2
tp3419
sg319
I00
sg320
I00
sg321
Nsg322
I00
sbag0
(g314
g2
Ntp3420
Rp3421
(dp3422
g35
(I25
I3
tp3423
sg319
I00
sg320
I00
sg321
Nsg322
I00
sbag0
(g314
g2
Ntp3424
Rp3425
(dp3426
g35
(I25
I4
tp3427
sg319
I00
sg320
I00
sg321
Nsg322
I00
sbag0
(g314
g2
Ntp3428
Rp3429
(dp3430
g35
(I25
I5
tp3431
sg319
I00
sg320
I00
sg321
Nsg322
I00
sbag0
(g314
g2
Ntp3432
Rp3433
(dp3434
g35
(I25
I6
tp3435
sg319
I00
sg320
I00
sg321
Nsg322
I00
sbag0
(g314
g2
Ntp3436
Rp3437
(dp3438
g35
(I25
I7
tp3439
sg319
I00
sg320
I00
sg321
Nsg322
I00
sbag0
(g314
g2
Ntp3440
Rp3441
(dp3442
g35
(I25
I8
tp3443
sg319
I00
sg320
I00
sg321
Nsg322
I00
sbag0
(g314
g2
Ntp3444
Rp3445
(dp3446
g35
(I25
I9
tp3447
sg319
I00
sg320
I00
sg321
Nsg322
I00
sbag0
(g314
g2
Ntp3448
Rp3449
(dp3450
g35
(I25
I10
tp3451
sg319
I00
sg320
I00
sg321
Nsg322
I01
sbag0
(g314
g2
Ntp3452
Rp3453
(dp3454
g35
(I25
I11
tp3455
sg319
I00
sg320
I00
sg321
g46
sg322
I01
sbag0
(g314
g2
Ntp3456
Rp3457
(dp3458
g35
(I25
I12
tp3459
sg319
I00
sg320
I00
sg321
g58
sg322
I01
sbag0
(g314
g2
Ntp3460
Rp3461
(dp3462
g35
(I25
I13
tp3463
sg319
I00
sg320
I00
sg321
g77
sg322
I01
sbag0
(g314
g2
Ntp3464
Rp3465
(dp3466
g35
(I25
I14
tp3467
sg319
I00
sg320
I00
sg321
g87
sg322
I01
sbag0
(g314
g2
Ntp3468
Rp3469
(dp3470
g35
(I25
I15
tp3471
sg319
I00
sg320
I00
sg321
Nsg322
I01
sbag0
(g314
g2
Ntp3472
Rp3473
(dp3474
g35
(I25
I16
tp3475
sg319
I01
sg320
I00
sg321
Nsg322
I01
sbag0
(g314
g2
Ntp3476
Rp3477
(dp3478
g35
(I25
I17
tp3479
sg319
I01
sg320
I00
sg321
Nsg322
I01
sbag0
(g314
g2
Ntp3480
Rp3481
(dp3482
g35
(I25
I18
tp3483
sg319
I01
sg320
I00
sg321
Nsg322
I01
sbag0
(g314
g2
Ntp3484
Rp3485
(dp3486
g35
(I25
I19
tp3487
sg319
I01
sg320
I00
sg321
Nsg322
I01
sbag0
(g314
g2
Ntp3488
Rp3489
(dp3490
g35
(I25
I20
tp3491
sg319
I01
sg320
I00
sg321
Nsg322
I01
sbag0
(g314
g2
Ntp3492
Rp3493
(dp3494
g35
(I25
I21
tp3495
sg319
I01
sg320
I00
sg321
Nsg322
I01
sbag0
(g314
g2
Ntp3496
Rp3497
(dp3498
g35
(I25
I22
tp3499
sg319
I00
sg320
I00
sg321
Nsg322
I00
sbag0
(g314
g2
Ntp3500
Rp3501
(dp3502
g35
(I25
I23
tp3503
sg319
I00
sg320
I00
sg321
Nsg322
I00
sbag0
(g314
g2
Ntp3504
Rp3505
(dp3506
g35
(I25
I24
tp3507
sg319
I00
sg320
I00
sg321
Nsg322
I00
sbag0
(g314
g2
Ntp3508
Rp3509
(dp3510
g35
(I25
I25
tp3511
sg319
I00
sg320
I00
sg321
Nsg322
I00
sbag0
(g314
g2
Ntp3512
Rp3513
(dp3514
g35
(I25
I26
tp3515
sg319
I00
sg320
I00
sg321
Nsg322
I00
sbag0
(g314
g2
Ntp3516
Rp3517
(dp3518
g35
(I25
I27
tp3519
sg319
I00
sg320
I00
sg321
Nsg322
I00
sbag0
(g314
g2
Ntp3520
Rp3521
(dp3522
g35
(I25
I28
tp3523
sg319
I00
sg320
I00
sg321
Nsg322
I00
sbag0
(g314
g2
Ntp3524
Rp3525
(dp3526
g35
(I25
I29
tp3527
sg319
I00
sg320
I00
sg321
Nsg322
I00
sbaa(lp3528
g0
(g314
g2
Ntp3529
Rp3530
(dp3531
g35
(I26
I0
tp3532
sg319
I00
sg320
I00
sg321
Nsg322
I00
sbag0
(g314
g2
Ntp3533
Rp3534
(dp3535
g35
(I26
I1
tp3536
sg319
I00
sg320
I00
sg321
Nsg322
I00
sbag0
(g314
g2
Ntp3537
Rp3538
(dp3539
g35
(I26
I2
tp3540
sg319
I00
sg320
I00
sg321
Nsg322
I00
sbag0
(g314
g2
Ntp3541
Rp3542
(dp3543
g35
(I26
I3
tp3544
sg319
I00
sg320
I00
sg321
Nsg322
I00
sbag0
(g314
g2
Ntp3545
Rp3546
(dp3547
g35
(I26
I4
tp3548
sg319
I00
sg320
I00
sg321
Nsg322
I00
sbag0
(g314
g2
Ntp3549
Rp3550
(dp3551
g35
(I26
I5
tp3552
sg319
I00
sg320
I00
sg321
Nsg322
I00
sbag0
(g314
g2
Ntp3553
Rp3554
(dp3555
g35
(I26
I6
tp3556
sg319
I00
sg320
I00
sg321
Nsg322
I00
sbag0
(g314
g2
Ntp3557
Rp3558
(dp3559
g35
(I26
I7
tp3560
sg319
I00
sg320
I00
sg321
Nsg322
I00
sbag0
(g314
g2
Ntp3561
Rp3562
(dp3563
g35
(I26
I8
tp3564
sg319
I00
sg320
I00
sg321
Nsg322
I00
sbag0
(g314
g2
Ntp3565
Rp3566
(dp3567
g35
(I26
I9
tp3568
sg319
I00
sg320
I00
sg321
Nsg322
I00
sbag0
(g314
g2
Ntp3569
Rp3570
(dp3571
g35
(I26
I10
tp3572
sg319
I00
sg320
I00
sg321
Nsg322
I01
sbag0
(g314
g2
Ntp3573
Rp3574
(dp3575
g35
(I26
I11
tp3576
sg319
I00
sg320
I00
sg321
g46
sg322
I01
sbag0
(g314
g2
Ntp3577
Rp3578
(dp3579
g35
(I26
I12
tp3580
sg319
I00
sg320
I00
sg321
g58
sg322
I01
sbag0
(g314
g2
Ntp3581
Rp3582
(dp3583
g35
(I26
I13
tp3584
sg319
I00
sg320
I00
sg321
g77
sg322
I01
sbag0
(g314
g2
Ntp3585
Rp3586
(dp3587
g35
(I26
I14
tp3588
sg319
I00
sg320
I00
sg321
g87
sg322
I01
sbag0
(g314
g2
Ntp3589
Rp3590
(dp3591
g35
(I26
I15
tp3592
sg319
I00
sg320
I00
sg321
g98
sg322
I01
sbag0
(g314
g2
Ntp3593
Rp3594
(dp3595
g35
(I26
I16
tp3596
sg319
I01
sg320
I00
sg321
g114
sg322
I01
sbag0
(g314
g2
Ntp3597
Rp3598
(dp3599
g35
(I26
I17
tp3600
sg319
I01
sg320
I00
sg321
g130
sg322
I01
sbag0
(g314
g2
Ntp3601
Rp3602
(dp3603
g35
(I26
I18
tp3604
sg319
I01
sg320
I00
sg321
Nsg322
I01
sbag0
(g314
g2
Ntp3605
Rp3606
(dp3607
g35
(I26
I19
tp3608
sg319
I01
sg320
I00
sg321
Nsg322
I01
sbag0
(g314
g2
Ntp3609
Rp3610
(dp3611
g35
(I26
I20
tp3612
sg319
I01
sg320
I00
sg321
Nsg322
I01
sbag0
(g314
g2
Ntp3613
Rp3614
(dp3615
g35
(I26
I21
tp3616
sg319
I01
sg320
I00
sg321
Nsg322
I01
sbag0
(g314
g2
Ntp3617
Rp3618
(dp3619
g35
(I26
I22
tp3620
sg319
I00
sg320
I00
sg321
Nsg322
I01
sbag0
(g314
g2
Ntp3621
Rp3622
(dp3623
g35
(I26
I23
tp3624
sg319
I00
sg320
I00
sg321
Nsg322
I00
sbag0
(g314
g2
Ntp3625
Rp3626
(dp3627
g35
(I26
I24
tp3628
sg319
I00
sg320
I00
sg321
Nsg322
I00
sbag0
(g314
g2
Ntp3629
Rp3630
(dp3631
g35
(I26
I25
tp3632
sg319
I00
sg320
I00
sg321
Nsg322
I00
sbag0
(g314
g2
Ntp3633
Rp3634
(dp3635
g35
(I26
I26
tp3636
sg319
I00
sg320
I00
sg321
Nsg322
I00
sbag0
(g314
g2
Ntp3637
Rp3638
(dp3639
g35
(I26
I27
tp3640
sg319
I00
sg320
I00
sg321
Nsg322
I00
sbag0
(g314
g2
Ntp3641
Rp3642
(dp3643
g35
(I26
I28
tp3644
sg319
I00
sg320
I00
sg321
Nsg322
I00
sbag0
(g314
g2
Ntp3645
Rp3646
(dp3647
g35
(I26
I29
tp3648
sg319
I00
sg320
I00
sg321
Nsg322
I00
sbaa(lp3649
g0
(g314
g2
Ntp3650
Rp3651
(dp3652
g35
(I27
I0
tp3653
sg319
I00
sg320
I00
sg321
Nsg322
I00
sbag0
(g314
g2
Ntp3654
Rp3655
(dp3656
g35
(I27
I1
tp3657
sg319
I00
sg320
I00
sg321
Nsg322
I00
sbag0
(g314
g2
Ntp3658
Rp3659
(dp3660
g35
(I27
I2
tp3661
sg319
I00
sg320
I00
sg321
Nsg322
I00
sbag0
(g314
g2
Ntp3662
Rp3663
(dp3664
g35
(I27
I3
tp3665
sg319
I00
sg320
I00
sg321
Nsg322
I00
sbag0
(g314
g2
Ntp3666
Rp3667
(dp3668
g35
(I27
I4
tp3669
sg319
I00
sg320
I00
sg321
Nsg322
I00
sbag0
(g314
g2
Ntp3670
Rp3671
(dp3672
g35
(I27
I5
tp3673
sg319
I00
sg320
I00
sg321
Nsg322
I00
sbag0
(g314
g2
Ntp3674
Rp3675
(dp3676
g35
(I27
I6
tp3677
sg319
I00
sg320
I00
sg321
Nsg322
I00
sbag0
(g314
g2
Ntp3678
Rp3679
(dp3680
g35
(I27
I7
tp3681
sg319
I00
sg320
I00
sg321
Nsg322
I00
sbag0
(g314
g2
Ntp3682
Rp3683
(dp3684
g35
(I27
I8
tp3685
sg319
I00
sg320
I00
sg321
Nsg322
I00
sbag0
(g314
g2
Ntp3686
Rp3687
(dp3688
g35
(I27
I9
tp3689
sg319
I00
sg320
I00
sg321
Nsg322
I00
sbag0
(g314
g2
Ntp3690
Rp3691
(dp3692
g35
(I27
I10
tp3693
sg319
I00
sg320
I00
sg321
Nsg322
I01
sbag0
(g314
g2
Ntp3694
Rp3695
(dp3696
g35
(I27
I11
tp3697
sg319
I00
sg320
I00
sg321
g46
sg322
I01
sbag0
(g314
g2
Ntp3698
Rp3699
(dp3700
g35
(I27
I12
tp3701
sg319
I00
sg320
I00
sg321
g58
sg322
I01
sbag0
(g314
g2
Ntp3702
Rp3703
(dp3704
g35
(I27
I13
tp3705
sg319
I00
sg320
I00
sg321
g77
sg322
I01
sbag0
(g314
g2
Ntp3706
Rp3707
(dp3708
g35
(I27
I14
tp3709
sg319
I00
sg320
I00
sg321
g87
sg322
I01
sbag0
(g314
g2
Ntp3710
Rp3711
(dp3712
g35
(I27
I15
tp3713
sg319
I00
sg320
I00
sg321
g98
sg322
I01
sbag0
(g314
g2
Ntp3714
Rp3715
(dp3716
g35
(I27
I16
tp3717
sg319
I01
sg320
I00
sg321
g114
sg322
I01
sbag0
(g314
g2
Ntp3718
Rp3719
(dp3720
g35
(I27
I17
tp3721
sg319
I01
sg320
I00
sg321
g130
sg322
I01
sbag0
(g314
g2
Ntp3722
Rp3723
(dp3724
g35
(I27
I18
tp3725
sg319
I01
sg320
I00
sg321
g140
sg322
I01
sbag0
(g314
g2
Ntp3726
Rp3727
(dp3728
g35
(I27
I19
tp3729
sg319
I01
sg320
I00
sg321
g154
sg322
I01
sbag0
(g314
g2
Ntp3730
Rp3731
(dp3732
g35
(I27
I20
tp3733
sg319
I01
sg320
I00
sg321
Nsg322
I01
sbag0
(g314
g2
Ntp3734
Rp3735
(dp3736
g35
(I27
I21
tp3737
sg319
I01
sg320
I00
sg321
Nsg322
I01
sbag0
(g314
g2
Ntp3738
Rp3739
(dp3740
g35
(I27
I22
tp3741
sg319
I00
sg320
I00
sg321
Nsg322
I01
sbag0
(g314
g2
Ntp3742
Rp3743
(dp3744
g35
(I27
I23
tp3745
sg319
I00
sg320
I00
sg321
Nsg322
I00
sbag0
(g314
g2
Ntp3746
Rp3747
(dp3748
g35
(I27
I24
tp3749
sg319
I00
sg320
I00
sg321
Nsg322
I00
sbag0
(g314
g2
Ntp3750
Rp3751
(dp3752
g35
(I27
I25
tp3753
sg319
I00
sg320
I00
sg321
Nsg322
I00
sbag0
(g314
g2
Ntp3754
Rp3755
(dp3756
g35
(I27
I26
tp3757
sg319
I00
sg320
I00
sg321
Nsg322
I00
sbag0
(g314
g2
Ntp3758
Rp3759
(dp3760
g35
(I27
I27
tp3761
sg319
I00
sg320
I00
sg321
Nsg322
I00
sbag0
(g314
g2
Ntp3762
Rp3763
(dp3764
g35
(I27
I28
tp3765
sg319
I00
sg320
I00
sg321
Nsg322
I00
sbag0
(g314
g2
Ntp3766
Rp3767
(dp3768
g35
(I27
I29
tp3769
sg319
I00
sg320
I00
sg321
Nsg322
I00
sbaa(lp3770
g0
(g314
g2
Ntp3771
Rp3772
(dp3773
g35
(I28
I0
tp3774
sg319
I00
sg320
I00
sg321
Nsg322
I00
sbag0
(g314
g2
Ntp3775
Rp3776
(dp3777
g35
(I28
I1
tp3778
sg319
I00
sg320
I00
sg321
Nsg322
I00
sbag0
(g314
g2
Ntp3779
Rp3780
(dp3781
g35
(I28
I2
tp3782
sg319
I00
sg320
I00
sg321
Nsg322
I00
sbag0
(g314
g2
Ntp3783
Rp3784
(dp3785
g35
(I28
I3
tp3786
sg319
I00
sg320
I00
sg321
Nsg322
I00
sbag0
(g314
g2
Ntp3787
Rp3788
(dp3789
g35
(I28
I4
tp3790
sg319
I00
sg320
I00
sg321
Nsg322
I00
sbag0
(g314
g2
Ntp3791
Rp3792
(dp3793
g35
(I28
I5
tp3794
sg319
I00
sg320
I00
sg321
Nsg322
I00
sbag0
(g314
g2
Ntp3795
Rp3796
(dp3797
g35
(I28
I6
tp3798
sg319
I00
sg320
I00
sg321
Nsg322
I00
sbag0
(g314
g2
Ntp3799
Rp3800
(dp3801
g35
(I28
I7
tp3802
sg319
I00
sg320
I00
sg321
Nsg322
I00
sbag0
(g314
g2
Ntp3803
Rp3804
(dp3805
g35
(I28
I8
tp3806
sg319
I00
sg320
I00
sg321
Nsg322
I00
sbag0
(g314
g2
Ntp3807
Rp3808
(dp3809
g35
(I28
I9
tp3810
sg319
I00
sg320
I00
sg321
Nsg322
I00
sbag0
(g314
g2
Ntp3811
Rp3812
(dp3813
g35
(I28
I10
tp3814
sg319
I00
sg320
I00
sg321
Nsg322
I01
sbag0
(g314
g2
Ntp3815
Rp3816
(dp3817
g35
(I28
I11
tp3818
sg319
I00
sg320
I00
sg321
g46
sg322
I01
sbag0
(g314
g2
Ntp3819
Rp3820
(dp3821
g35
(I28
I12
tp3822
sg319
I00
sg320
I00
sg321
g58
sg322
I01
sbag0
(g314
g2
Ntp3823
Rp3824
(dp3825
g35
(I28
I13
tp3826
sg319
I00
sg320
I00
sg321
g77
sg322
I01
sbag0
(g314
g2
Ntp3827
Rp3828
(dp3829
g35
(I28
I14
tp3830
sg319
I00
sg320
I00
sg321
g87
sg322
I01
sbag0
(g314
g2
Ntp3831
Rp3832
(dp3833
g35
(I28
I15
tp3834
sg319
I00
sg320
I00
sg321
g98
sg322
I01
sbag0
(g314
g2
Ntp3835
Rp3836
(dp3837
g35
(I28
I16
tp3838
sg319
I01
sg320
I00
sg321
g114
sg322
I01
sbag0
(g314
g2
Ntp3839
Rp3840
(dp3841
g35
(I28
I17
tp3842
sg319
I01
sg320
I00
sg321
g130
sg322
I01
sbag0
(g314
g2
Ntp3843
Rp3844
(dp3845
g35
(I28
I18
tp3846
sg319
I01
sg320
I00
sg321
g140
sg322
I01
sbag0
(g314
g2
Ntp3847
Rp3848
(dp3849
g35
(I28
I19
tp3850
sg319
I01
sg320
I00
sg321
g154
sg322
I01
sbag0
(g314
g2
Ntp3851
Rp3852
(dp3853
g35
(I28
I20
tp3854
sg319
I01
sg320
I00
sg321
g164
sg322
I01
sbag0
(g314
g2
Ntp3855
Rp3856
(dp3857
g35
(I28
I21
tp3858
sg319
I01
sg320
I00
sg321
Nsg322
I01
sbag0
(g314
g2
Ntp3859
Rp3860
(dp3861
g35
(I28
I22
tp3862
sg319
I00
sg320
I00
sg321
Nsg322
I01
sbag0
(g314
g2
Ntp3863
Rp3864
(dp3865
g35
(I28
I23
tp3866
sg319
I00
sg320
I00
sg321
Nsg322
I00
sbag0
(g314
g2
Ntp3867
Rp3868
(dp3869
g35
(I28
I24
tp3870
sg319
I00
sg320
I00
sg321
Nsg322
I00
sbag0
(g314
g2
Ntp3871
Rp3872
(dp3873
g35
(I28
I25
tp3874
sg319
I00
sg320
I00
sg321
Nsg322
I00
sbag0
(g314
g2
Ntp3875
Rp3876
(dp3877
g35
(I28
I26
tp3878
sg319
I00
sg320
I00
sg321
Nsg322
I00
sbag0
(g314
g2
Ntp3879
Rp3880
(dp3881
g35
(I28
I27
tp3882
sg319
I00
sg320
I00
sg321
Nsg322
I00
sbag0
(g314
g2
Ntp3883
Rp3884
(dp3885
g35
(I28
I28
tp3886
sg319
I00
sg320
I00
sg321
Nsg322
I00
sbag0
(g314
g2
Ntp3887
Rp3888
(dp3889
g35
(I28
I29
tp3890
sg319
I00
sg320
I00
sg321
Nsg322
I00
sbaa(lp3891
g0
(g314
g2
Ntp3892
Rp3893
(dp3894
g35
(I29
I0
tp3895
sg319
I00
sg320
I00
sg321
Nsg322
I00
sbag0
(g314
g2
Ntp3896
Rp3897
(dp3898
g35
(I29
I1
tp3899
sg319
I00
sg320
I00
sg321
Nsg322
I00
sbag0
(g314
g2
Ntp3900
Rp3901
(dp3902
g35
(I29
I2
tp3903
sg319
I00
sg320
I00
sg321
Nsg322
I00
sbag0
(g314
g2
Ntp3904
Rp3905
(dp3906
g35
(I29
I3
tp3907
sg319
I00
sg320
I00
sg321
Nsg322
I00
sbag0
(g314
g2
Ntp3908
Rp3909
(dp3910
g35
(I29
I4
tp3911
sg319
I00
sg320
I00
sg321
Nsg322
I00
sbag0
(g314
g2
Ntp3912
Rp3913
(dp3914
g35
(I29
I5
tp3915
sg319
I00
sg320
I00
sg321
Nsg322
I00
sbag0
(g314
g2
Ntp3916
Rp3917
(dp3918
g35
(I29
I6
tp3919
sg319
I00
sg320
I00
sg321
Nsg322
I00
sbag0
(g314
g2
Ntp3920
Rp3921
(dp3922
g35
(I29
I7
tp3923
sg319
I00
sg320
I00
sg321
Nsg322
I00
sbag0
(g314
g2
Ntp3924
Rp3925
(dp3926
g35
(I29
I8
tp3927
sg319
I00
sg320
I00
sg321
Nsg322
I00
sbag0
(g314
g2
Ntp3928
Rp3929
(dp3930
g35
(I29
I9
tp3931
sg319
I00
sg320
I00
sg321
Nsg322
I01
sbag0
(g314
g2
Ntp3932
Rp3933
(dp3934
g35
(I29
I10
tp3935
sg319
I00
sg320
I00
sg321
(iBase
Base
p3936
(dp3937
g15
g16
sg23
I00
sg32
(lp3938
I2
aI2
aI2
aI2
aI2
aI2
aI2
aI2
aI2
aI2
asg366
(lp3939
(I29
I10
tp3940
a(I29
I11
tp3941
a(I29
I12
tp3942
a(I29
I13
tp3943
a(I29
I14
tp3944
a(I29
I15
tp3945
a(I29
I16
tp3946
a(I29
I17
tp3947
a(I29
I18
tp3948
a(I29
I19
tp3949
asbsg322
I00
sbag0
(g314
g2
Ntp3950
Rp3951
(dp3952
g35
(I29
I11
tp3953
sg319
I00
sg320
I00
sg321
g3936
sg322
I00
sbag0
(g314
g2
Ntp3954
Rp3955
(dp3956
g35
(I29
I12
tp3957
sg319
I00
sg320
I00
sg321
g3936
sg322
I00
sbag0
(g314
g2
Ntp3958
Rp3959
(dp3960
g35
(I29
I13
tp3961
sg319
I00
sg320
I00
sg321
g3936
sg322
I00
sbag0
(g314
g2
Ntp3962
Rp3963
(dp3964
g35
(I29
I14
tp3965
sg319
I00
sg320
I00
sg321
g3936
sg322
I00
sbag0
(g314
g2
Ntp3966
Rp3967
(dp3968
g35
(I29
I15
tp3969
sg319
I00
sg320
I00
sg321
g3936
sg322
I00
sbag0
(g314
g2
Ntp3970
Rp3971
(dp3972
g35
(I29
I16
tp3973
sg319
I01
sg320
I00
sg321
g3936
sg322
I01
sbag0
(g314
g2
Ntp3974
Rp3975
(dp3976
g35
(I29
I17
tp3977
sg319
I01
sg320
I00
sg321
g3936
sg322
I01
sbag0
(g314
g2
Ntp3978
Rp3979
(dp3980
g35
(I29
I18
tp3981
sg319
I01
sg320
I00
sg321
g3936
sg322
I01
sbag0
(g314
g2
Ntp3982
Rp3983
(dp3984
g35
(I29
I19
tp3985
sg319
I01
sg320
I00
sg321
g3936
sg322
I01
sbag0
(g314
g2
Ntp3986
Rp3987
(dp3988
g35
(I29
I20
tp3989
sg319
I01
sg320
I00
sg321
Nsg322
I01
sbag0
(g314
g2
Ntp3990
Rp3991
(dp3992
g35
(I29
I21
tp3993
sg319
I01
sg320
I00
sg321
Nsg322
I01
sbag0
(g314
g2
Ntp3994
Rp3995
(dp3996
g35
(I29
I22
tp3997
sg319
I00
sg320
I00
sg321
Nsg322
I01
sbag0
(g314
g2
Ntp3998
Rp3999
(dp4000
g35
(I29
I23
tp4001
sg319
I00
sg320
I00
sg321
Nsg322
I00
sbag0
(g314
g2
Ntp4002
Rp4003
(dp4004
g35
(I29
I24
tp4005
sg319
I00
sg320
I00
sg321
Nsg322
I00
sbag0
(g314
g2
Ntp4006
Rp4007
(dp4008
g35
(I29
I25
tp4009
sg319
I00
sg320
I00
sg321
Nsg322
I00
sbag0
(g314
g2
Ntp4010
Rp4011
(dp4012
g35
(I29
I26
tp4013
sg319
I00
sg320
I00
sg321
Nsg322
I00
sbag0
(g314
g2
Ntp4014
Rp4015
(dp4016
g35
(I29
I27
tp4017
sg319
I00
sg320
I00
sg321
Nsg322
I00
sbag0
(g314
g2
Ntp4018
Rp4019
(dp4020
g35
(I29
I28
tp4021
sg319
I00
sg320
I00
sg321
Nsg322
I00
sbag0
(g314
g2
Ntp4022
Rp4023
(dp4024
g35
(I29
I29
tp4025
sg319
I00
sg320
I00
sg321
Nsg322
I00
sbaasbsS'player2'
p4026
g0
(cPlayerState
PlayerState
p4027
g2
Ntp4028
Rp4029
(dp4030
g15
g179
sS'shipList'
p4031
(lp4032
g177
ag192
ag203
ag219
ag229
ag239
ag251
ag266
ag275
ag287
ag296
asS'base'
p4033
g363
sS'you'
p4034
I01
sbsS'player'
p4035
I00
sS'player1'
p4036
g0
(g4027
g2
Ntp4037
Rp4038
(dp4039
g15
g16
sg4031
(lp4040
g10
ag46
ag58
ag77
ag87
ag98
ag114
ag130
ag140
ag154
ag164
asg4033
g3936
sg4034
I00
sbsS'coral'
p4041
(lp4042
(I10
I10
tp4043
a(I11
I20
tp4044
a(I13
I7
tp4045
a(I11
I5
tp4046
a(I13
I6
tp4047
a(I10
I9
tp4048
a(I11
I22
tp4049
a(I13
I23
tp4050
a(I11
I13
tp4051
a(I10
I25
tp4052
a(I12
I14
tp4053
a(I14
I22
tp4054
a(I15
I14
tp4055
a(I18
I26
tp4056
a(I16
I18
tp4057
a(I17
I4
tp4058
a(I18
I14
tp4059
a(I16
I19
tp4060
a(I16
I17
tp4061
a(I16
I16
tp4062
a(I19
I21
tp4063
a(I16
I12
tp4064
a(I18
I10
tp4065
a(I17
I7
tp4066
asb.