ccopy_reg
_reconstructor
p0
(cGame
Game
p1
c__builtin__
object
p2
Ntp3
Rp4
(dp5
S'turnType'
p6
S''
p7
sS'turn'
p8
I01
sS'shiplist'
p9
(lp10
g0
(cShip
Cruiser
p11
g2
Ntp12
Rp13
(dp14
S'radarX'
p15
I10
sS'orientation'
p16
S'W'
p17
sS'color'
p18
(I76
I0
I153
tp19
sS'weapon'
p20
(lp21
g0
(cWeapon
HeavyCannon
p22
g2
Ntp23
Rp24
(dp25
S'rangeY'
p26
I11
sS'selected'
p27
I00
sS'damage'
p28
I2
sS'rangeX'
p29
I15
sbasg27
I00
sS'docked'
p30
I00
sS'mines'
p31
I0
sS'name'
p32
S'cruiser'
p33
sS'turnRadius'
p34
I1
sS'health'
p35
(lp36
I2
aI2
aI2
aI2
aI2
asS'armour'
p37
I2
sS'position'
p38
(lp39
(I15
I3
tp40
a(I16
I3
tp41
a(I17
I3
tp42
a(I18
I3
tp43
a(I19
I3
tp44
asS'speed'
p45
I10
sS'healthSum'
p46
I10
sS'size'
p47
I5
sbag0
(g11
g2
Ntp48
Rp49
(dp50
g15
I10
sg16
g17
sg18
g19
sg20
(lp51
g24
asg27
I00
sg30
I00
sg31
I0
sg32
g33
sg34
I1
sg35
(lp52
I2
aI2
aI2
aI2
aI2
asg37
I2
sg38
(lp53
(I5
I13
tp54
a(I6
I13
tp55
a(I7
I13
tp56
a(I8
I13
tp57
a(I9
I13
tp58
asg45
I10
sg46
I10
sg47
I5
sbag0
(cShip
Destroyer
p59
g2
Ntp60
Rp61
(dp62
g46
I4
sg15
I8
sg16
g17
sg18
g19
sg20
(lp63
g0
(cWeapon
Cannon
p64
g2
Ntp65
Rp66
(dp67
g26
I9
sg27
I00
sg28
I2
sg29
I12
sbag0
(cWeapon
Torpedo
p68
g2
Ntp69
Rp70
(dp71
g26
I10
sg27
I00
sg28
I2
sg29
I10
sbasg27
I00
sg30
I00
sg31
I0
sg32
S'destroyer'
p72
sg34
I1
sg35
(lp73
I1
aI1
aI1
aI1
asg38
(lp74
(I21
I8
tp75
a(I22
I8
tp76
a(I23
I8
tp77
a(I24
I8
tp78
asg45
I8
sg37
I1
sg47
I4
sbag0
(g59
g2
Ntp79
Rp80
(dp81
g46
I4
sg15
I8
sg16
g17
sg18
g19
sg20
(lp82
g66
ag70
asg27
I00
sg30
I00
sg31
I0
sg32
g72
sg34
I1
sg35
(lp83
I1
aI1
aI0
aI1
asg38
(lp84
(I20
I6
tp85
a(I21
I6
tp86
a(I22
I6
tp87
a(I23
I6
tp88
asg45
I6
sg37
I1
sg47
I4
sbag0
(g59
g2
Ntp89
Rp90
(dp91
g46
I4
sg15
I8
sg16
g17
sg18
g19
sg20
(lp92
g66
ag70
asg27
I00
sg30
I00
sg31
I0
sg32
g72
sg34
I1
sg35
(lp93
I1
aI1
aI1
aI1
asg38
(lp94
(I15
I14
tp95
a(I16
I14
tp96
a(I17
I14
tp97
a(I18
I14
tp98
asg45
I8
sg37
I1
sg47
I4
sbag0
(cShip
RadarBoat
p99
g2
Ntp100
Rp101
(dp102
g46
I3
sg15
I6
sS'longRadarX'
p103
I12
sg16
g17
sg18
g19
sg20
(lp104
g0
(g64
g2
Ntp105
Rp106
(dp107
g26
I3
sg27
I00
sg28
I2
sg29
I5
sbasg27
I00
sg30
I00
sg31
I0
sS'LongRadarOn'
p108
I01
sg32
S'radar'
p109
sg34
I2
sg35
(lp110
I1
aI1
aI1
asg38
(lp111
(I19
I12
tp112
a(I20
I12
tp113
a(I21
I12
tp114
asg45
I3
sg37
I1
sg47
I3
sbag0
(cShip
TorpedoBoat
p115
g2
Ntp116
Rp117
(dp118
g46
I3
sg15
I6
sg16
S'N'
p119
sg18
g19
sg20
(lp120
g0
(g64
g2
Ntp121
Rp122
(dp123
g26
I5
sg27
I00
sg28
I2
sg29
I5
sbag0
(g68
g2
Ntp124
Rp125
(dp126
g26
I10
sg27
I00
sg28
I2
sg29
I10
sbasg27
I00
sg30
I00
sg31
I0
sg32
S'torpedo'
p127
sg34
I2
sg35
(lp128
I0
aI0
aI0
asg38
(lp129
(I16
I4
tp130
a(I16
I5
tp131
a(I16
I6
tp132
asg45
I3
sg37
I1
sg47
I3
sbag0
(g115
g2
Ntp133
Rp134
(dp135
g46
I3
sg15
I6
sg16
g17
sg18
g19
sg20
(lp136
g122
ag125
asg27
I00
sg30
I00
sg31
I0
sg32
g127
sg34
I2
sg35
(lp137
I1
aI1
aI1
asg38
(lp138
(I8
I27
tp139
a(I9
I27
tp140
a(I10
I27
tp141
asg45
I9
sg37
I1
sg47
I3
sbag0
(cShip
MineLayer
p142
g2
Ntp143
Rp144
(dp145
g46
I4
sg15
I6
sg16
g17
sg18
g19
sg20
(lp146
g0
(g64
g2
Ntp147
Rp148
(dp149
g26
I5
sg27
I00
sg28
I2
sg29
I4
sbasg27
I00
sg30
I00
sg31
I5
sg32
S'MineLayer'
p150
sg34
I1
sg35
(lp151
I2
aI2
asS'mineList'
p152
(lp153
sg38
(lp154
(I22
I23
tp155
a(I23
I23
tp156
asg45
I6
sg37
I2
sg47
I2
sbag0
(g142
g2
Ntp157
Rp158
(dp159
g46
I4
sg15
I6
sg16
g17
sg18
g19
sg20
(lp160
g148
asg27
I00
sg30
I00
sg31
I5
sg32
g150
sg34
I1
sg35
(lp161
I2
aI2
asg152
(lp162
sg38
(lp163
(I27
I19
tp164
a(I28
I19
tp165
asg45
I6
sg37
I2
sg47
I2
sbag0
(cShip
Kamikaze
p166
g2
Ntp167
Rp168
(dp169
g15
I5
sg16
S'E'
p170
sg18
g19
sg20
(lp171
g0
(cWeapon
Explosive
p172
g2
Ntp173
Rp174
(dp175
g26
I3
sg27
I00
sg28
I2
sg29
I3
sbasg27
I00
sg30
I00
sg31
I0
sg32
S'kamikaze'
p176
sg34
I1
sg35
(lp177
I0
asg38
(lp178
(I18
I9
tp179
asg45
I2
sg37
I2
sg47
I1
sbag0
(g11
g2
Ntp180
Rp181
(dp182
g15
I10
sg16
g170
sg18
(I255
I255
I255
tp183
sg20
(lp184
g0
(g22
g2
Ntp185
Rp186
(dp187
g26
I11
sg27
I00
sg28
I2
sg29
I15
sbasg27
I00
sg30
I00
sg31
I0
sg32
g33
sg34
I1
sg35
(lp188
I0
aI0
aI0
aI0
aI0
asg37
I2
sg38
(lp189
(I19
I6
tp190
a(I18
I6
tp191
a(I17
I6
tp192
a(I16
I6
tp193
a(I15
I6
tp194
asg45
I2
sg46
I10
sg47
I5
sbag0
(g11
g2
Ntp195
Rp196
(dp197
g15
I10
sg16
g170
sg18
g183
sg20
(lp198
g186
asg27
I00
sg30
I00
sg31
I0
sg32
g33
sg34
I1
sg35
(lp199
I0
aI0
aI0
aI0
aI0
asg37
I2
sg38
(lp200
(I13
I9
tp201
a(I12
I9
tp202
a(I11
I9
tp203
a(I10
I9
tp204
a(I9
I9
tp205
asg45
I2
sg46
I10
sg47
I5
sbag0
(g59
g2
Ntp206
Rp207
(dp208
g46
I4
sg15
I8
sg16
S'S'
p209
sg18
g183
sg20
(lp210
g0
(g64
g2
Ntp211
Rp212
(dp213
g26
I9
sg27
I00
sg28
I2
sg29
I12
sbag0
(g68
g2
Ntp214
Rp215
(dp216
g26
I10
sg27
I00
sg28
I2
sg29
I10
sbasg27
I00
sg30
I00
sg31
I0
sg32
g72
sg34
I1
sg35
(lp217
I0
aI0
aI1
aI0
asg38
(lp218
(I14
I9
tp219
a(I14
I8
tp220
a(I14
I7
tp221
a(I14
I6
tp222
asg45
I2
sg37
I1
sg47
I4
sbag0
(g59
g2
Ntp223
Rp224
(dp225
g46
I4
sg15
I8
sg16
g170
sg18
g183
sg20
(lp226
g212
ag215
asg27
I00
sg30
I00
sg31
I0
sg32
g72
sg34
I1
sg35
(lp227
I0
aI0
aI0
aI0
asg38
(lp228
(I12
I7
tp229
a(I11
I7
tp230
a(I10
I7
tp231
a(I9
I7
tp232
asg45
I2
sg37
I1
sg47
I4
sbag0
(g59
g2
Ntp233
Rp234
(dp235
g46
I4
sg15
I8
sg16
g170
sg18
g183
sg20
(lp236
g212
ag215
asg27
I00
sg30
I00
sg31
I0
sg32
g72
sg34
I1
sg35
(lp237
I0
aI0
aI0
aI0
asg38
(lp238
(I18
I13
tp239
a(I17
I13
tp240
a(I16
I13
tp241
a(I15
I13
tp242
asg45
I2
sg37
I1
sg47
I4
sbag0
(g99
g2
Ntp243
Rp244
(dp245
g46
I3
sg15
I6
sg103
I12
sg16
g170
sg18
g183
sg20
(lp246
g0
(g64
g2
Ntp247
Rp248
(dp249
g26
I3
sg27
I00
sg28
I2
sg29
I5
sbasg27
I00
sg30
I00
sg31
I0
sg108
I00
sg32
g109
sg34
I2
sg35
(lp250
I0
aI0
aI0
asg38
(lp251
(I10
I11
tp252
a(I9
I11
tp253
a(I8
I11
tp254
asg45
I1
sg37
I1
sg47
I3
sbag0
(g115
g2
Ntp255
Rp256
(dp257
g46
I3
sg15
I6
sg16
g170
sg18
g183
sg20
(lp258
g0
(g64
g2
Ntp259
Rp260
(dp261
g26
I5
sg27
I00
sg28
I2
sg29
I5
sbag0
(g68
g2
Ntp262
Rp263
(dp264
g26
I10
sg27
I00
sg28
I2
sg29
I10
sbasg27
I00
sg30
I00
sg31
I0
sg32
g127
sg34
I2
sg35
(lp265
I0
aI0
aI0
asg38
(lp266
(I9
I26
tp267
a(I8
I26
tp268
a(I7
I26
tp269
asg45
I3
sg37
I1
sg47
I3
sbag0
(g115
g2
Ntp270
Rp271
(dp272
g46
I3
sg15
I6
sg16
g170
sg18
g183
sg20
(lp273
g260
ag263
asg27
I00
sg30
I00
sg31
I0
sg32
g127
sg34
I2
sg35
(lp274
I0
aI0
aI0
asg38
(lp275
(I3
I12
tp276
a(I2
I12
tp277
a(I1
I12
tp278
asg45
I3
sg37
I1
sg47
I3
sbag0
(g142
g2
Ntp279
Rp280
(dp281
g46
I4
sg15
I6
sg16
g170
sg18
g183
sg20
(lp282
g0
(g64
g2
Ntp283
Rp284
(dp285
g26
I5
sg27
I00
sg28
I2
sg29
I4
sbasg27
I00
sg30
I00
sg31
I5
sg32
g150
sg34
I1
sg35
(lp286
I0
aI0
asg152
(lp287
sg38
(lp288
(I13
I16
tp289
a(I12
I16
tp290
asg45
I6
sg37
I2
sg47
I2
sbag0
(g142
g2
Ntp291
Rp292
(dp293
g46
I4
sg15
I6
sg16
g170
sg18
g183
sg20
(lp294
g284
asg27
I00
sg30
I00
sg31
I5
sg32
g150
sg34
I1
sg35
(lp295
I0
aI0
asg152
(lp296
sg38
(lp297
(I20
I16
tp298
a(I19
I16
tp299
asg45
I6
sg37
I2
sg47
I2
sbag0
(g166
g2
Ntp300
Rp301
(dp302
g15
I5
sg16
g170
sg18
g183
sg20
(lp303
g0
(g172
g2
Ntp304
Rp305
(dp306
g26
I3
sg27
I00
sg28
I2
sg29
I3
sbasg27
I00
sg30
I00
sg31
I0
sg32
g176
sg34
I1
sg35
(lp307
I0
asg38
(lp308
(I9
I25
tp309
asg45
I2
sg37
I2
sg47
I1
sbasS'gameBoard'
p310
(iBoard
Board
p311
(dp312
S'y'
p313
I-1
sS'x'
p314
I-1
sS'tick'
p315
I0
sS'board'
p316
(lp317
(lp318
g0
(cSquare
Square
p319
g2
Ntp320
Rp321
(dp322
g38
(I0
I0
tp323
sS'activeRange'
p324
I00
sS'sonarVisible'
p325
I00
sS'objectOn'
p326
NsS'visible'
p327
I00
sbag0
(g319
g2
Ntp328
Rp329
(dp330
g38
(I0
I1
tp331
sg324
I00
sg325
I00
sg326
Nsg327
I00
sbag0
(g319
g2
Ntp332
Rp333
(dp334
g38
(I0
I2
tp335
sg324
I00
sg325
I00
sg326
Nsg327
I00
sbag0
(g319
g2
Ntp336
Rp337
(dp338
g38
(I0
I3
tp339
sg324
I00
sg325
I00
sg326
Nsg327
I00
sbag0
(g319
g2
Ntp340
Rp341
(dp342
g38
(I0
I4
tp343
sg324
I00
sg325
I00
sg326
Nsg327
I00
sbag0
(g319
g2
Ntp344
Rp345
(dp346
g38
(I0
I5
tp347
sg324
I00
sg325
I00
sg326
Nsg327
I00
sbag0
(g319
g2
Ntp348
Rp349
(dp350
g38
(I0
I6
tp351
sg324
I00
sg325
I00
sg326
Nsg327
I00
sbag0
(g319
g2
Ntp352
Rp353
(dp354
g38
(I0
I7
tp355
sg324
I00
sg325
I00
sg326
Nsg327
I00
sbag0
(g319
g2
Ntp356
Rp357
(dp358
g38
(I0
I8
tp359
sg324
I00
sg325
I00
sg326
Nsg327
I00
sbag0
(g319
g2
Ntp360
Rp361
(dp362
g38
(I0
I9
tp363
sg324
I00
sg325
I00
sg326
Nsg327
I00
sbag0
(g319
g2
Ntp364
Rp365
(dp366
g38
(I0
I10
tp367
sg324
I00
sg325
I00
sg326
(iBase
Base
p368
(dp369
g18
(I0
I170
I0
tp370
sg27
I00
sg35
(lp371
I2
aI0
aI2
aI2
aI2
aI2
aI2
aI2
aI2
aI2
asS'positionList'
p372
(lp373
(I0
I10
tp374
a(I0
I11
tp375
a(I0
I12
tp376
a(I0
I13
tp377
a(I0
I14
tp378
a(I0
I15
tp379
a(I0
I16
tp380
a(I0
I17
tp381
a(I0
I18
tp382
a(I0
I19
tp383
asbsg327
I00
sbag0
(g319
g2
Ntp384
Rp385
(dp386
g38
(I0
I11
tp387
sg324
I00
sg325
I00
sg326
Nsg327
I00
sbag0
(g319
g2
Ntp388
Rp389
(dp390
g38
(I0
I12
tp391
sg324
I00
sg325
I00
sg326
g368
sg327
I01
sbag0
(g319
g2
Ntp392
Rp393
(dp394
g38
(I0
I13
tp395
sg324
I00
sg325
I00
sg326
g368
sg327
I01
sbag0
(g319
g2
Ntp396
Rp397
(dp398
g38
(I0
I14
tp399
sg324
I00
sg325
I00
sg326
g368
sg327
I01
sbag0
(g319
g2
Ntp400
Rp401
(dp402
g38
(I0
I15
tp403
sg324
I00
sg325
I00
sg326
g368
sg327
I00
sbag0
(g319
g2
Ntp404
Rp405
(dp406
g38
(I0
I16
tp407
sg324
I00
sg325
I00
sg326
g368
sg327
I00
sbag0
(g319
g2
Ntp408
Rp409
(dp410
g38
(I0
I17
tp411
sg324
I00
sg325
I00
sg326
g368
sg327
I00
sbag0
(g319
g2
Ntp412
Rp413
(dp414
g38
(I0
I18
tp415
sg324
I00
sg325
I00
sg326
g368
sg327
I00
sbag0
(g319
g2
Ntp416
Rp417
(dp418
g38
(I0
I19
tp419
sg324
I00
sg325
I00
sg326
g368
sg327
I00
sbag0
(g319
g2
Ntp420
Rp421
(dp422
g38
(I0
I20
tp423
sg324
I00
sg325
I00
sg326
Nsg327
I00
sbag0
(g319
g2
Ntp424
Rp425
(dp426
g38
(I0
I21
tp427
sg324
I00
sg325
I00
sg326
Nsg327
I00
sbag0
(g319
g2
Ntp428
Rp429
(dp430
g38
(I0
I22
tp431
sg324
I00
sg325
I00
sg326
Nsg327
I00
sbag0
(g319
g2
Ntp432
Rp433
(dp434
g38
(I0
I23
tp435
sg324
I00
sg325
I00
sg326
Nsg327
I00
sbag0
(g319
g2
Ntp436
Rp437
(dp438
g38
(I0
I24
tp439
sg324
I00
sg325
I00
sg326
Nsg327
I00
sbag0
(g319
g2
Ntp440
Rp441
(dp442
g38
(I0
I25
tp443
sg324
I00
sg325
I00
sg326
Nsg327
I00
sbag0
(g319
g2
Ntp444
Rp445
(dp446
g38
(I0
I26
tp447
sg324
I00
sg325
I00
sg326
Nsg327
I00
sbag0
(g319
g2
Ntp448
Rp449
(dp450
g38
(I0
I27
tp451
sg324
I00
sg325
I00
sg326
Nsg327
I00
sbag0
(g319
g2
Ntp452
Rp453
(dp454
g38
(I0
I28
tp455
sg324
I00
sg325
I00
sg326
Nsg327
I00
sbag0
(g319
g2
Ntp456
Rp457
(dp458
g38
(I0
I29
tp459
sg324
I00
sg325
I00
sg326
Nsg327
I00
sbaa(lp460
g0
(g319
g2
Ntp461
Rp462
(dp463
g38
(I1
I0
tp464
sg324
I00
sg325
I00
sg326
Nsg327
I00
sbag0
(g319
g2
Ntp465
Rp466
(dp467
g38
(I1
I1
tp468
sg324
I00
sg325
I00
sg326
Nsg327
I00
sbag0
(g319
g2
Ntp469
Rp470
(dp471
g38
(I1
I2
tp472
sg324
I00
sg325
I00
sg326
Nsg327
I00
sbag0
(g319
g2
Ntp473
Rp474
(dp475
g38
(I1
I3
tp476
sg324
I00
sg325
I00
sg326
Nsg327
I00
sbag0
(g319
g2
Ntp477
Rp478
(dp479
g38
(I1
I4
tp480
sg324
I00
sg325
I00
sg326
Nsg327
I00
sbag0
(g319
g2
Ntp481
Rp482
(dp483
g38
(I1
I5
tp484
sg324
I00
sg325
I00
sg326
Nsg327
I00
sbag0
(g319
g2
Ntp485
Rp486
(dp487
g38
(I1
I6
tp488
sg324
I00
sg325
I00
sg326
Nsg327
I00
sbag0
(g319
g2
Ntp489
Rp490
(dp491
g38
(I1
I7
tp492
sg324
I00
sg325
I00
sg326
Nsg327
I00
sbag0
(g319
g2
Ntp493
Rp494
(dp495
g38
(I1
I8
tp496
sg324
I00
sg325
I00
sg326
Nsg327
I00
sbag0
(g319
g2
Ntp497
Rp498
(dp499
g38
(I1
I9
tp500
sg324
I00
sg325
I00
sg326
Nsg327
I00
sbag0
(g319
g2
Ntp501
Rp502
(dp503
g38
(I1
I10
tp504
sg324
I00
sg325
I00
sg326
Nsg327
I00
sbag0
(g319
g2
Ntp505
Rp506
(dp507
g38
(I1
I11
tp508
sg324
I00
sg325
I00
sg326
Nsg327
I00
sbag0
(g319
g2
Ntp509
Rp510
(dp511
g38
(I1
I12
tp512
sg324
I00
sg325
I00
sg326
Nsg327
I01
sbag0
(g319
g2
Ntp513
Rp514
(dp515
g38
(I1
I13
tp516
sg324
I00
sg325
I00
sg326
Nsg327
I01
sbag0
(g319
g2
Ntp517
Rp518
(dp519
g38
(I1
I14
tp520
sg324
I00
sg325
I00
sg326
Nsg327
I01
sbag0
(g319
g2
Ntp521
Rp522
(dp523
g38
(I1
I15
tp524
sg324
I00
sg325
I00
sg326
Nsg327
I00
sbag0
(g319
g2
Ntp525
Rp526
(dp527
g38
(I1
I16
tp528
sg324
I00
sg325
I00
sg326
Nsg327
I00
sbag0
(g319
g2
Ntp529
Rp530
(dp531
g38
(I1
I17
tp532
sg324
I00
sg325
I00
sg326
Nsg327
I00
sbag0
(g319
g2
Ntp533
Rp534
(dp535
g38
(I1
I18
tp536
sg324
I00
sg325
I00
sg326
Nsg327
I00
sbag0
(g319
g2
Ntp537
Rp538
(dp539
g38
(I1
I19
tp540
sg324
I00
sg325
I00
sg326
Nsg327
I00
sbag0
(g319
g2
Ntp541
Rp542
(dp543
g38
(I1
I20
tp544
sg324
I00
sg325
I00
sg326
Nsg327
I00
sbag0
(g319
g2
Ntp545
Rp546
(dp547
g38
(I1
I21
tp548
sg324
I00
sg325
I00
sg326
Nsg327
I00
sbag0
(g319
g2
Ntp549
Rp550
(dp551
g38
(I1
I22
tp552
sg324
I00
sg325
I00
sg326
Nsg327
I00
sbag0
(g319
g2
Ntp553
Rp554
(dp555
g38
(I1
I23
tp556
sg324
I00
sg325
I00
sg326
Nsg327
I00
sbag0
(g319
g2
Ntp557
Rp558
(dp559
g38
(I1
I24
tp560
sg324
I00
sg325
I00
sg326
Nsg327
I00
sbag0
(g319
g2
Ntp561
Rp562
(dp563
g38
(I1
I25
tp564
sg324
I00
sg325
I00
sg326
Nsg327
I00
sbag0
(g319
g2
Ntp565
Rp566
(dp567
g38
(I1
I26
tp568
sg324
I00
sg325
I00
sg326
Nsg327
I00
sbag0
(g319
g2
Ntp569
Rp570
(dp571
g38
(I1
I27
tp572
sg324
I00
sg325
I00
sg326
Nsg327
I00
sbag0
(g319
g2
Ntp573
Rp574
(dp575
g38
(I1
I28
tp576
sg324
I00
sg325
I00
sg326
Nsg327
I00
sbag0
(g319
g2
Ntp577
Rp578
(dp579
g38
(I1
I29
tp580
sg324
I00
sg325
I00
sg326
Nsg327
I00
sbaa(lp581
g0
(g319
g2
Ntp582
Rp583
(dp584
g38
(I2
I0
tp585
sg324
I00
sg325
I00
sg326
Nsg327
I00
sbag0
(g319
g2
Ntp586
Rp587
(dp588
g38
(I2
I1
tp589
sg324
I00
sg325
I00
sg326
Nsg327
I00
sbag0
(g319
g2
Ntp590
Rp591
(dp592
g38
(I2
I2
tp593
sg324
I00
sg325
I00
sg326
Nsg327
I00
sbag0
(g319
g2
Ntp594
Rp595
(dp596
g38
(I2
I3
tp597
sg324
I00
sg325
I00
sg326
Nsg327
I00
sbag0
(g319
g2
Ntp598
Rp599
(dp600
g38
(I2
I4
tp601
sg324
I00
sg325
I00
sg326
Nsg327
I00
sbag0
(g319
g2
Ntp602
Rp603
(dp604
g38
(I2
I5
tp605
sg324
I00
sg325
I00
sg326
Nsg327
I00
sbag0
(g319
g2
Ntp606
Rp607
(dp608
g38
(I2
I6
tp609
sg324
I00
sg325
I00
sg326
Nsg327
I00
sbag0
(g319
g2
Ntp610
Rp611
(dp612
g38
(I2
I7
tp613
sg324
I00
sg325
I00
sg326
Nsg327
I00
sbag0
(g319
g2
Ntp614
Rp615
(dp616
g38
(I2
I8
tp617
sg324
I00
sg325
I00
sg326
Nsg327
I00
sbag0
(g319
g2
Ntp618
Rp619
(dp620
g38
(I2
I9
tp621
sg324
I00
sg325
I00
sg326
Nsg327
I00
sbag0
(g319
g2
Ntp622
Rp623
(dp624
g38
(I2
I10
tp625
sg324
I00
sg325
I00
sg326
Nsg327
I00
sbag0
(g319
g2
Ntp626
Rp627
(dp628
g38
(I2
I11
tp629
sg324
I00
sg325
I00
sg326
Nsg327
I00
sbag0
(g319
g2
Ntp630
Rp631
(dp632
g38
(I2
I12
tp633
sg324
I00
sg325
I00
sg326
Nsg327
I01
sbag0
(g319
g2
Ntp634
Rp635
(dp636
g38
(I2
I13
tp637
sg324
I00
sg325
I00
sg326
Nsg327
I01
sbag0
(g319
g2
Ntp638
Rp639
(dp640
g38
(I2
I14
tp641
sg324
I00
sg325
I00
sg326
Nsg327
I01
sbag0
(g319
g2
Ntp642
Rp643
(dp644
g38
(I2
I15
tp645
sg324
I00
sg325
I00
sg326
Nsg327
I00
sbag0
(g319
g2
Ntp646
Rp647
(dp648
g38
(I2
I16
tp649
sg324
I00
sg325
I00
sg326
Nsg327
I00
sbag0
(g319
g2
Ntp650
Rp651
(dp652
g38
(I2
I17
tp653
sg324
I00
sg325
I00
sg326
Nsg327
I00
sbag0
(g319
g2
Ntp654
Rp655
(dp656
g38
(I2
I18
tp657
sg324
I00
sg325
I00
sg326
Nsg327
I00
sbag0
(g319
g2
Ntp658
Rp659
(dp660
g38
(I2
I19
tp661
sg324
I00
sg325
I00
sg326
Nsg327
I00
sbag0
(g319
g2
Ntp662
Rp663
(dp664
g38
(I2
I20
tp665
sg324
I00
sg325
I00
sg326
Nsg327
I00
sbag0
(g319
g2
Ntp666
Rp667
(dp668
g38
(I2
I21
tp669
sg324
I00
sg325
I00
sg326
Nsg327
I00
sbag0
(g319
g2
Ntp670
Rp671
(dp672
g38
(I2
I22
tp673
sg324
I00
sg325
I00
sg326
Nsg327
I00
sbag0
(g319
g2
Ntp674
Rp675
(dp676
g38
(I2
I23
tp677
sg324
I00
sg325
I00
sg326
Nsg327
I00
sbag0
(g319
g2
Ntp678
Rp679
(dp680
g38
(I2
I24
tp681
sg324
I00
sg325
I00
sg326
Nsg327
I00
sbag0
(g319
g2
Ntp682
Rp683
(dp684
g38
(I2
I25
tp685
sg324
I00
sg325
I00
sg326
Nsg327
I00
sbag0
(g319
g2
Ntp686
Rp687
(dp688
g38
(I2
I26
tp689
sg324
I00
sg325
I00
sg326
Nsg327
I00
sbag0
(g319
g2
Ntp690
Rp691
(dp692
g38
(I2
I27
tp693
sg324
I00
sg325
I00
sg326
Nsg327
I00
sbag0
(g319
g2
Ntp694
Rp695
(dp696
g38
(I2
I28
tp697
sg324
I00
sg325
I00
sg326
Nsg327
I00
sbag0
(g319
g2
Ntp698
Rp699
(dp700
g38
(I2
I29
tp701
sg324
I00
sg325
I00
sg326
Nsg327
I00
sbaa(lp702
g0
(g319
g2
Ntp703
Rp704
(dp705
g38
(I3
I0
tp706
sg324
I00
sg325
I00
sg326
Nsg327
I00
sbag0
(g319
g2
Ntp707
Rp708
(dp709
g38
(I3
I1
tp710
sg324
I00
sg325
I00
sg326
Nsg327
I00
sbag0
(g319
g2
Ntp711
Rp712
(dp713
g38
(I3
I2
tp714
sg324
I00
sg325
I00
sg326
Nsg327
I00
sbag0
(g319
g2
Ntp715
Rp716
(dp717
g38
(I3
I3
tp718
sg324
I00
sg325
I00
sg326
Nsg327
I00
sbag0
(g319
g2
Ntp719
Rp720
(dp721
g38
(I3
I4
tp722
sg324
I00
sg325
I00
sg326
Nsg327
I00
sbag0
(g319
g2
Ntp723
Rp724
(dp725
g38
(I3
I5
tp726
sg324
I00
sg325
I00
sg326
Nsg327
I00
sbag0
(g319
g2
Ntp727
Rp728
(dp729
g38
(I3
I6
tp730
sg324
I00
sg325
I00
sg326
Nsg327
I00
sbag0
(g319
g2
Ntp731
Rp732
(dp733
g38
(I3
I7
tp734
sg324
I00
sg325
I00
sg326
Nsg327
I00
sbag0
(g319
g2
Ntp735
Rp736
(dp737
g38
(I3
I8
tp738
sg324
I00
sg325
I00
sg326
Nsg327
I00
sbag0
(g319
g2
Ntp739
Rp740
(dp741
g38
(I3
I9
tp742
sg324
I00
sg325
I00
sg326
Nsg327
I00
sbag0
(g319
g2
Ntp743
Rp744
(dp745
g38
(I3
I10
tp746
sg324
I00
sg325
I00
sg326
Nsg327
I00
sbag0
(g319
g2
Ntp747
Rp748
(dp749
g38
(I3
I11
tp750
sg324
I00
sg325
I00
sg326
Nsg327
I00
sbag0
(g319
g2
Ntp751
Rp752
(dp753
g38
(I3
I12
tp754
sg324
I00
sg325
I00
sg326
Nsg327
I01
sbag0
(g319
g2
Ntp755
Rp756
(dp757
g38
(I3
I13
tp758
sg324
I00
sg325
I00
sg326
Nsg327
I01
sbag0
(g319
g2
Ntp759
Rp760
(dp761
g38
(I3
I14
tp762
sg324
I00
sg325
I00
sg326
Nsg327
I01
sbag0
(g319
g2
Ntp763
Rp764
(dp765
g38
(I3
I15
tp766
sg324
I00
sg325
I00
sg326
Nsg327
I00
sbag0
(g319
g2
Ntp767
Rp768
(dp769
g38
(I3
I16
tp770
sg324
I00
sg325
I00
sg326
Nsg327
I00
sbag0
(g319
g2
Ntp771
Rp772
(dp773
g38
(I3
I17
tp774
sg324
I00
sg325
I00
sg326
Nsg327
I00
sbag0
(g319
g2
Ntp775
Rp776
(dp777
g38
(I3
I18
tp778
sg324
I00
sg325
I00
sg326
Nsg327
I00
sbag0
(g319
g2
Ntp779
Rp780
(dp781
g38
(I3
I19
tp782
sg324
I00
sg325
I00
sg326
Nsg327
I00
sbag0
(g319
g2
Ntp783
Rp784
(dp785
g38
(I3
I20
tp786
sg324
I00
sg325
I00
sg326
Nsg327
I00
sbag0
(g319
g2
Ntp787
Rp788
(dp789
g38
(I3
I21
tp790
sg324
I00
sg325
I00
sg326
Nsg327
I00
sbag0
(g319
g2
Ntp791
Rp792
(dp793
g38
(I3
I22
tp794
sg324
I00
sg325
I00
sg326
Nsg327
I00
sbag0
(g319
g2
Ntp795
Rp796
(dp797
g38
(I3
I23
tp798
sg324
I00
sg325
I00
sg326
Nsg327
I00
sbag0
(g319
g2
Ntp799
Rp800
(dp801
g38
(I3
I24
tp802
sg324
I00
sg325
I00
sg326
Nsg327
I00
sbag0
(g319
g2
Ntp803
Rp804
(dp805
g38
(I3
I25
tp806
sg324
I00
sg325
I00
sg326
Nsg327
I00
sbag0
(g319
g2
Ntp807
Rp808
(dp809
g38
(I3
I26
tp810
sg324
I00
sg325
I00
sg326
Nsg327
I00
sbag0
(g319
g2
Ntp811
Rp812
(dp813
g38
(I3
I27
tp814
sg324
I00
sg325
I00
sg326
Nsg327
I00
sbag0
(g319
g2
Ntp815
Rp816
(dp817
g38
(I3
I28
tp818
sg324
I00
sg325
I00
sg326
Nsg327
I00
sbag0
(g319
g2
Ntp819
Rp820
(dp821
g38
(I3
I29
tp822
sg324
I00
sg325
I00
sg326
Nsg327
I00
sbaa(lp823
g0
(g319
g2
Ntp824
Rp825
(dp826
g38
(I4
I0
tp827
sg324
I00
sg325
I00
sg326
Nsg327
I00
sbag0
(g319
g2
Ntp828
Rp829
(dp830
g38
(I4
I1
tp831
sg324
I00
sg325
I00
sg326
Nsg327
I00
sbag0
(g319
g2
Ntp832
Rp833
(dp834
g38
(I4
I2
tp835
sg324
I00
sg325
I00
sg326
Nsg327
I00
sbag0
(g319
g2
Ntp836
Rp837
(dp838
g38
(I4
I3
tp839
sg324
I00
sg325
I00
sg326
Nsg327
I00
sbag0
(g319
g2
Ntp840
Rp841
(dp842
g38
(I4
I4
tp843
sg324
I00
sg325
I00
sg326
Nsg327
I00
sbag0
(g319
g2
Ntp844
Rp845
(dp846
g38
(I4
I5
tp847
sg324
I00
sg325
I00
sg326
Nsg327
I00
sbag0
(g319
g2
Ntp848
Rp849
(dp850
g38
(I4
I6
tp851
sg324
I00
sg325
I00
sg326
Nsg327
I00
sbag0
(g319
g2
Ntp852
Rp853
(dp854
g38
(I4
I7
tp855
sg324
I00
sg325
I00
sg326
Nsg327
I00
sbag0
(g319
g2
Ntp856
Rp857
(dp858
g38
(I4
I8
tp859
sg324
I00
sg325
I00
sg326
Nsg327
I00
sbag0
(g319
g2
Ntp860
Rp861
(dp862
g38
(I4
I9
tp863
sg324
I00
sg325
I00
sg326
Nsg327
I00
sbag0
(g319
g2
Ntp864
Rp865
(dp866
g38
(I4
I10
tp867
sg324
I00
sg325
I00
sg326
Nsg327
I00
sbag0
(g319
g2
Ntp868
Rp869
(dp870
g38
(I4
I11
tp871
sg324
I00
sg325
I00
sg326
Nsg327
I00
sbag0
(g319
g2
Ntp872
Rp873
(dp874
g38
(I4
I12
tp875
sg324
I00
sg325
I00
sg326
Nsg327
I01
sbag0
(g319
g2
Ntp876
Rp877
(dp878
g38
(I4
I13
tp879
sg324
I00
sg325
I00
sg326
Nsg327
I01
sbag0
(g319
g2
Ntp880
Rp881
(dp882
g38
(I4
I14
tp883
sg324
I00
sg325
I00
sg326
Nsg327
I01
sbag0
(g319
g2
Ntp884
Rp885
(dp886
g38
(I4
I15
tp887
sg324
I00
sg325
I00
sg326
Nsg327
I00
sbag0
(g319
g2
Ntp888
Rp889
(dp890
g38
(I4
I16
tp891
sg324
I00
sg325
I00
sg326
Nsg327
I00
sbag0
(g319
g2
Ntp892
Rp893
(dp894
g38
(I4
I17
tp895
sg324
I00
sg325
I00
sg326
Nsg327
I00
sbag0
(g319
g2
Ntp896
Rp897
(dp898
g38
(I4
I18
tp899
sg324
I00
sg325
I00
sg326
Nsg327
I00
sbag0
(g319
g2
Ntp900
Rp901
(dp902
g38
(I4
I19
tp903
sg324
I00
sg325
I00
sg326
Nsg327
I00
sbag0
(g319
g2
Ntp904
Rp905
(dp906
g38
(I4
I20
tp907
sg324
I00
sg325
I00
sg326
Nsg327
I00
sbag0
(g319
g2
Ntp908
Rp909
(dp910
g38
(I4
I21
tp911
sg324
I00
sg325
I00
sg326
Nsg327
I00
sbag0
(g319
g2
Ntp912
Rp913
(dp914
g38
(I4
I22
tp915
sg324
I00
sg325
I00
sg326
Nsg327
I00
sbag0
(g319
g2
Ntp916
Rp917
(dp918
g38
(I4
I23
tp919
sg324
I00
sg325
I00
sg326
Nsg327
I00
sbag0
(g319
g2
Ntp920
Rp921
(dp922
g38
(I4
I24
tp923
sg324
I00
sg325
I00
sg326
Nsg327
I00
sbag0
(g319
g2
Ntp924
Rp925
(dp926
g38
(I4
I25
tp927
sg324
I00
sg325
I00
sg326
Nsg327
I00
sbag0
(g319
g2
Ntp928
Rp929
(dp930
g38
(I4
I26
tp931
sg324
I00
sg325
I00
sg326
Nsg327
I01
sbag0
(g319
g2
Ntp932
Rp933
(dp934
g38
(I4
I27
tp935
sg324
I00
sg325
I00
sg326
Nsg327
I01
sbag0
(g319
g2
Ntp936
Rp937
(dp938
g38
(I4
I28
tp939
sg324
I00
sg325
I00
sg326
Nsg327
I01
sbag0
(g319
g2
Ntp940
Rp941
(dp942
g38
(I4
I29
tp943
sg324
I00
sg325
I00
sg326
Nsg327
I00
sbaa(lp944
g0
(g319
g2
Ntp945
Rp946
(dp947
g38
(I5
I0
tp948
sg324
I00
sg325
I00
sg326
Nsg327
I00
sbag0
(g319
g2
Ntp949
Rp950
(dp951
g38
(I5
I1
tp952
sg324
I00
sg325
I00
sg326
Nsg327
I00
sbag0
(g319
g2
Ntp953
Rp954
(dp955
g38
(I5
I2
tp956
sg324
I00
sg325
I00
sg326
Nsg327
I00
sbag0
(g319
g2
Ntp957
Rp958
(dp959
g38
(I5
I3
tp960
sg324
I00
sg325
I00
sg326
Nsg327
I00
sbag0
(g319
g2
Ntp961
Rp962
(dp963
g38
(I5
I4
tp964
sg324
I00
sg325
I00
sg326
Nsg327
I00
sbag0
(g319
g2
Ntp965
Rp966
(dp967
g38
(I5
I5
tp968
sg324
I00
sg325
I00
sg326
Nsg327
I00
sbag0
(g319
g2
Ntp969
Rp970
(dp971
g38
(I5
I6
tp972
sg324
I00
sg325
I00
sg326
Nsg327
I00
sbag0
(g319
g2
Ntp973
Rp974
(dp975
g38
(I5
I7
tp976
sg324
I00
sg325
I00
sg326
Nsg327
I00
sbag0
(g319
g2
Ntp977
Rp978
(dp979
g38
(I5
I8
tp980
sg324
I00
sg325
I00
sg326
Nsg327
I00
sbag0
(g319
g2
Ntp981
Rp982
(dp983
g38
(I5
I9
tp984
sg324
I00
sg325
I00
sg326
Nsg327
I00
sbag0
(g319
g2
Ntp985
Rp986
(dp987
g38
(I5
I10
tp988
sg324
I00
sg325
I00
sg326
Nsg327
I00
sbag0
(g319
g2
Ntp989
Rp990
(dp991
g38
(I5
I11
tp992
sg324
I00
sg325
I00
sg326
Nsg327
I00
sbag0
(g319
g2
Ntp993
Rp994
(dp995
g38
(I5
I12
tp996
sg324
I00
sg325
I00
sg326
Nsg327
I01
sbag0
(g319
g2
Ntp997
Rp998
(dp999
g38
(I5
I13
tp1000
sg324
I00
sg325
I00
sg326
g49
sg327
I01
sbag0
(g319
g2
Ntp1001
Rp1002
(dp1003
g38
(I5
I14
tp1004
sg324
I00
sg325
I00
sg326
Nsg327
I01
sbag0
(g319
g2
Ntp1005
Rp1006
(dp1007
g38
(I5
I15
tp1008
sg324
I00
sg325
I00
sg326
Nsg327
I00
sbag0
(g319
g2
Ntp1009
Rp1010
(dp1011
g38
(I5
I16
tp1012
sg324
I00
sg325
I00
sg326
Nsg327
I00
sbag0
(g319
g2
Ntp1013
Rp1014
(dp1015
g38
(I5
I17
tp1016
sg324
I00
sg325
I00
sg326
Nsg327
I00
sbag0
(g319
g2
Ntp1017
Rp1018
(dp1019
g38
(I5
I18
tp1020
sg324
I00
sg325
I00
sg326
Nsg327
I00
sbag0
(g319
g2
Ntp1021
Rp1022
(dp1023
g38
(I5
I19
tp1024
sg324
I00
sg325
I00
sg326
Nsg327
I00
sbag0
(g319
g2
Ntp1025
Rp1026
(dp1027
g38
(I5
I20
tp1028
sg324
I00
sg325
I00
sg326
Nsg327
I00
sbag0
(g319
g2
Ntp1029
Rp1030
(dp1031
g38
(I5
I21
tp1032
sg324
I00
sg325
I00
sg326
Nsg327
I00
sbag0
(g319
g2
Ntp1033
Rp1034
(dp1035
g38
(I5
I22
tp1036
sg324
I00
sg325
I00
sg326
Nsg327
I00
sbag0
(g319
g2
Ntp1037
Rp1038
(dp1039
g38
(I5
I23
tp1040
sg324
I00
sg325
I00
sg326
Nsg327
I00
sbag0
(g319
g2
Ntp1041
Rp1042
(dp1043
g38
(I5
I24
tp1044
sg324
I00
sg325
I00
sg326
Nsg327
I00
sbag0
(g319
g2
Ntp1045
Rp1046
(dp1047
g38
(I5
I25
tp1048
sg324
I00
sg325
I00
sg326
Nsg327
I00
sbag0
(g319
g2
Ntp1049
Rp1050
(dp1051
g38
(I5
I26
tp1052
sg324
I00
sg325
I00
sg326
Nsg327
I01
sbag0
(g319
g2
Ntp1053
Rp1054
(dp1055
g38
(I5
I27
tp1056
sg324
I00
sg325
I00
sg326
Nsg327
I01
sbag0
(g319
g2
Ntp1057
Rp1058
(dp1059
g38
(I5
I28
tp1060
sg324
I00
sg325
I00
sg326
Nsg327
I01
sbag0
(g319
g2
Ntp1061
Rp1062
(dp1063
g38
(I5
I29
tp1064
sg324
I00
sg325
I00
sg326
Nsg327
I00
sbaa(lp1065
g0
(g319
g2
Ntp1066
Rp1067
(dp1068
g38
(I6
I0
tp1069
sg324
I00
sg325
I00
sg326
Nsg327
I00
sbag0
(g319
g2
Ntp1070
Rp1071
(dp1072
g38
(I6
I1
tp1073
sg324
I00
sg325
I00
sg326
Nsg327
I00
sbag0
(g319
g2
Ntp1074
Rp1075
(dp1076
g38
(I6
I2
tp1077
sg324
I00
sg325
I00
sg326
Nsg327
I00
sbag0
(g319
g2
Ntp1078
Rp1079
(dp1080
g38
(I6
I3
tp1081
sg324
I00
sg325
I00
sg326
Nsg327
I00
sbag0
(g319
g2
Ntp1082
Rp1083
(dp1084
g38
(I6
I4
tp1085
sg324
I00
sg325
I00
sg326
Nsg327
I00
sbag0
(g319
g2
Ntp1086
Rp1087
(dp1088
g38
(I6
I5
tp1089
sg324
I00
sg325
I00
sg326
Nsg327
I00
sbag0
(g319
g2
Ntp1090
Rp1091
(dp1092
g38
(I6
I6
tp1093
sg324
I00
sg325
I00
sg326
Nsg327
I00
sbag0
(g319
g2
Ntp1094
Rp1095
(dp1096
g38
(I6
I7
tp1097
sg324
I00
sg325
I00
sg326
Nsg327
I00
sbag0
(g319
g2
Ntp1098
Rp1099
(dp1100
g38
(I6
I8
tp1101
sg324
I00
sg325
I00
sg326
Nsg327
I00
sbag0
(g319
g2
Ntp1102
Rp1103
(dp1104
g38
(I6
I9
tp1105
sg324
I00
sg325
I00
sg326
Nsg327
I00
sbag0
(g319
g2
Ntp1106
Rp1107
(dp1108
g38
(I6
I10
tp1109
sg324
I00
sg325
I00
sg326
Nsg327
I00
sbag0
(g319
g2
Ntp1110
Rp1111
(dp1112
g38
(I6
I11
tp1113
sg324
I00
sg325
I00
sg326
Nsg327
I00
sbag0
(g319
g2
Ntp1114
Rp1115
(dp1116
g38
(I6
I12
tp1117
sg324
I00
sg325
I00
sg326
Nsg327
I01
sbag0
(g319
g2
Ntp1118
Rp1119
(dp1120
g38
(I6
I13
tp1121
sg324
I00
sg325
I00
sg326
g49
sg327
I01
sbag0
(g319
g2
Ntp1122
Rp1123
(dp1124
g38
(I6
I14
tp1125
sg324
I00
sg325
I00
sg326
Nsg327
I01
sbag0
(g319
g2
Ntp1126
Rp1127
(dp1128
g38
(I6
I15
tp1129
sg324
I00
sg325
I00
sg326
Nsg327
I00
sbag0
(g319
g2
Ntp1130
Rp1131
(dp1132
g38
(I6
I16
tp1133
sg324
I00
sg325
I00
sg326
Nsg327
I00
sbag0
(g319
g2
Ntp1134
Rp1135
(dp1136
g38
(I6
I17
tp1137
sg324
I00
sg325
I00
sg326
Nsg327
I00
sbag0
(g319
g2
Ntp1138
Rp1139
(dp1140
g38
(I6
I18
tp1141
sg324
I00
sg325
I00
sg326
Nsg327
I00
sbag0
(g319
g2
Ntp1142
Rp1143
(dp1144
g38
(I6
I19
tp1145
sg324
I00
sg325
I00
sg326
Nsg327
I00
sbag0
(g319
g2
Ntp1146
Rp1147
(dp1148
g38
(I6
I20
tp1149
sg324
I00
sg325
I00
sg326
Nsg327
I00
sbag0
(g319
g2
Ntp1150
Rp1151
(dp1152
g38
(I6
I21
tp1153
sg324
I00
sg325
I00
sg326
Nsg327
I00
sbag0
(g319
g2
Ntp1154
Rp1155
(dp1156
g38
(I6
I22
tp1157
sg324
I00
sg325
I00
sg326
Nsg327
I00
sbag0
(g319
g2
Ntp1158
Rp1159
(dp1160
g38
(I6
I23
tp1161
sg324
I00
sg325
I00
sg326
Nsg327
I00
sbag0
(g319
g2
Ntp1162
Rp1163
(dp1164
g38
(I6
I24
tp1165
sg324
I00
sg325
I00
sg326
Nsg327
I00
sbag0
(g319
g2
Ntp1166
Rp1167
(dp1168
g38
(I6
I25
tp1169
sg324
I00
sg325
I00
sg326
Nsg327
I00
sbag0
(g319
g2
Ntp1170
Rp1171
(dp1172
g38
(I6
I26
tp1173
sg324
I00
sg325
I00
sg326
Nsg327
I01
sbag0
(g319
g2
Ntp1174
Rp1175
(dp1176
g38
(I6
I27
tp1177
sg324
I00
sg325
I00
sg326
Nsg327
I01
sbag0
(g319
g2
Ntp1178
Rp1179
(dp1180
g38
(I6
I28
tp1181
sg324
I00
sg325
I00
sg326
Nsg327
I01
sbag0
(g319
g2
Ntp1182
Rp1183
(dp1184
g38
(I6
I29
tp1185
sg324
I00
sg325
I00
sg326
Nsg327
I00
sbaa(lp1186
g0
(g319
g2
Ntp1187
Rp1188
(dp1189
g38
(I7
I0
tp1190
sg324
I00
sg325
I00
sg326
Nsg327
I00
sbag0
(g319
g2
Ntp1191
Rp1192
(dp1193
g38
(I7
I1
tp1194
sg324
I00
sg325
I00
sg326
Nsg327
I00
sbag0
(g319
g2
Ntp1195
Rp1196
(dp1197
g38
(I7
I2
tp1198
sg324
I00
sg325
I00
sg326
Nsg327
I00
sbag0
(g319
g2
Ntp1199
Rp1200
(dp1201
g38
(I7
I3
tp1202
sg324
I00
sg325
I00
sg326
Nsg327
I00
sbag0
(g319
g2
Ntp1203
Rp1204
(dp1205
g38
(I7
I4
tp1206
sg324
I00
sg325
I00
sg326
Nsg327
I00
sbag0
(g319
g2
Ntp1207
Rp1208
(dp1209
g38
(I7
I5
tp1210
sg324
I00
sg325
I00
sg326
Nsg327
I00
sbag0
(g319
g2
Ntp1211
Rp1212
(dp1213
g38
(I7
I6
tp1214
sg324
I00
sg325
I00
sg326
Nsg327
I00
sbag0
(g319
g2
Ntp1215
Rp1216
(dp1217
g38
(I7
I7
tp1218
sg324
I00
sg325
I00
sg326
Nsg327
I00
sbag0
(g319
g2
Ntp1219
Rp1220
(dp1221
g38
(I7
I8
tp1222
sg324
I00
sg325
I00
sg326
Nsg327
I00
sbag0
(g319
g2
Ntp1223
Rp1224
(dp1225
g38
(I7
I9
tp1226
sg324
I00
sg325
I00
sg326
Nsg327
I00
sbag0
(g319
g2
Ntp1227
Rp1228
(dp1229
g38
(I7
I10
tp1230
sg324
I00
sg325
I00
sg326
Nsg327
I00
sbag0
(g319
g2
Ntp1231
Rp1232
(dp1233
g38
(I7
I11
tp1234
sg324
I00
sg325
I00
sg326
Nsg327
I00
sbag0
(g319
g2
Ntp1235
Rp1236
(dp1237
g38
(I7
I12
tp1238
sg324
I00
sg325
I00
sg326
Nsg327
I01
sbag0
(g319
g2
Ntp1239
Rp1240
(dp1241
g38
(I7
I13
tp1242
sg324
I00
sg325
I00
sg326
g49
sg327
I01
sbag0
(g319
g2
Ntp1243
Rp1244
(dp1245
g38
(I7
I14
tp1246
sg324
I00
sg325
I00
sg326
Nsg327
I01
sbag0
(g319
g2
Ntp1247
Rp1248
(dp1249
g38
(I7
I15
tp1250
sg324
I00
sg325
I00
sg326
Nsg327
I00
sbag0
(g319
g2
Ntp1251
Rp1252
(dp1253
g38
(I7
I16
tp1254
sg324
I00
sg325
I00
sg326
Nsg327
I00
sbag0
(g319
g2
Ntp1255
Rp1256
(dp1257
g38
(I7
I17
tp1258
sg324
I00
sg325
I00
sg326
Nsg327
I00
sbag0
(g319
g2
Ntp1259
Rp1260
(dp1261
g38
(I7
I18
tp1262
sg324
I00
sg325
I00
sg326
Nsg327
I00
sbag0
(g319
g2
Ntp1263
Rp1264
(dp1265
g38
(I7
I19
tp1266
sg324
I00
sg325
I00
sg326
Nsg327
I00
sbag0
(g319
g2
Ntp1267
Rp1268
(dp1269
g38
(I7
I20
tp1270
sg324
I00
sg325
I00
sg326
Nsg327
I00
sbag0
(g319
g2
Ntp1271
Rp1272
(dp1273
g38
(I7
I21
tp1274
sg324
I00
sg325
I00
sg326
Nsg327
I00
sbag0
(g319
g2
Ntp1275
Rp1276
(dp1277
g38
(I7
I22
tp1278
sg324
I00
sg325
I00
sg326
Nsg327
I00
sbag0
(g319
g2
Ntp1279
Rp1280
(dp1281
g38
(I7
I23
tp1282
sg324
I00
sg325
I00
sg326
Nsg327
I00
sbag0
(g319
g2
Ntp1283
Rp1284
(dp1285
g38
(I7
I24
tp1286
sg324
I00
sg325
I00
sg326
Nsg327
I00
sbag0
(g319
g2
Ntp1287
Rp1288
(dp1289
g38
(I7
I25
tp1290
sg324
I00
sg325
I00
sg326
Nsg327
I00
sbag0
(g319
g2
Ntp1291
Rp1292
(dp1293
g38
(I7
I26
tp1294
sg324
I00
sg325
I00
sg326
Nsg327
I01
sbag0
(g319
g2
Ntp1295
Rp1296
(dp1297
g38
(I7
I27
tp1298
sg324
I00
sg325
I00
sg326
Nsg327
I01
sbag0
(g319
g2
Ntp1299
Rp1300
(dp1301
g38
(I7
I28
tp1302
sg324
I00
sg325
I00
sg326
Nsg327
I01
sbag0
(g319
g2
Ntp1303
Rp1304
(dp1305
g38
(I7
I29
tp1306
sg324
I00
sg325
I00
sg326
Nsg327
I00
sbaa(lp1307
g0
(g319
g2
Ntp1308
Rp1309
(dp1310
g38
(I8
I0
tp1311
sg324
I00
sg325
I00
sg326
Nsg327
I00
sbag0
(g319
g2
Ntp1312
Rp1313
(dp1314
g38
(I8
I1
tp1315
sg324
I00
sg325
I00
sg326
Nsg327
I00
sbag0
(g319
g2
Ntp1316
Rp1317
(dp1318
g38
(I8
I2
tp1319
sg324
I00
sg325
I00
sg326
Nsg327
I00
sbag0
(g319
g2
Ntp1320
Rp1321
(dp1322
g38
(I8
I3
tp1323
sg324
I00
sg325
I00
sg326
Nsg327
I00
sbag0
(g319
g2
Ntp1324
Rp1325
(dp1326
g38
(I8
I4
tp1327
sg324
I00
sg325
I00
sg326
Nsg327
I00
sbag0
(g319
g2
Ntp1328
Rp1329
(dp1330
g38
(I8
I5
tp1331
sg324
I00
sg325
I00
sg326
Nsg327
I00
sbag0
(g319
g2
Ntp1332
Rp1333
(dp1334
g38
(I8
I6
tp1335
sg324
I00
sg325
I00
sg326
Nsg327
I00
sbag0
(g319
g2
Ntp1336
Rp1337
(dp1338
g38
(I8
I7
tp1339
sg324
I00
sg325
I00
sg326
Nsg327
I00
sbag0
(g319
g2
Ntp1340
Rp1341
(dp1342
g38
(I8
I8
tp1343
sg324
I00
sg325
I00
sg326
Nsg327
I00
sbag0
(g319
g2
Ntp1344
Rp1345
(dp1346
g38
(I8
I9
tp1347
sg324
I00
sg325
I00
sg326
Nsg327
I00
sbag0
(g319
g2
Ntp1348
Rp1349
(dp1350
g38
(I8
I10
tp1351
sg324
I00
sg325
I00
sg326
Nsg327
I00
sbag0
(g319
g2
Ntp1352
Rp1353
(dp1354
g38
(I8
I11
tp1355
sg324
I00
sg325
I00
sg326
Nsg327
I00
sbag0
(g319
g2
Ntp1356
Rp1357
(dp1358
g38
(I8
I12
tp1359
sg324
I00
sg325
I00
sg326
Nsg327
I01
sbag0
(g319
g2
Ntp1360
Rp1361
(dp1362
g38
(I8
I13
tp1363
sg324
I00
sg325
I00
sg326
g49
sg327
I01
sbag0
(g319
g2
Ntp1364
Rp1365
(dp1366
g38
(I8
I14
tp1367
sg324
I00
sg325
I00
sg326
Nsg327
I01
sbag0
(g319
g2
Ntp1368
Rp1369
(dp1370
g38
(I8
I15
tp1371
sg324
I00
sg325
I00
sg326
Nsg327
I00
sbag0
(g319
g2
Ntp1372
Rp1373
(dp1374
g38
(I8
I16
tp1375
sg324
I00
sg325
I00
sg326
Nsg327
I00
sbag0
(g319
g2
Ntp1376
Rp1377
(dp1378
g38
(I8
I17
tp1379
sg324
I00
sg325
I00
sg326
Nsg327
I00
sbag0
(g319
g2
Ntp1380
Rp1381
(dp1382
g38
(I8
I18
tp1383
sg324
I00
sg325
I00
sg326
Nsg327
I00
sbag0
(g319
g2
Ntp1384
Rp1385
(dp1386
g38
(I8
I19
tp1387
sg324
I00
sg325
I00
sg326
Nsg327
I00
sbag0
(g319
g2
Ntp1388
Rp1389
(dp1390
g38
(I8
I20
tp1391
sg324
I00
sg325
I00
sg326
Nsg327
I00
sbag0
(g319
g2
Ntp1392
Rp1393
(dp1394
g38
(I8
I21
tp1395
sg324
I00
sg325
I00
sg326
Nsg327
I00
sbag0
(g319
g2
Ntp1396
Rp1397
(dp1398
g38
(I8
I22
tp1399
sg324
I00
sg325
I00
sg326
Nsg327
I00
sbag0
(g319
g2
Ntp1400
Rp1401
(dp1402
g38
(I8
I23
tp1403
sg324
I00
sg325
I00
sg326
Nsg327
I00
sbag0
(g319
g2
Ntp1404
Rp1405
(dp1406
g38
(I8
I24
tp1407
sg324
I00
sg325
I00
sg326
Nsg327
I00
sbag0
(g319
g2
Ntp1408
Rp1409
(dp1410
g38
(I8
I25
tp1411
sg324
I00
sg325
I00
sg326
Nsg327
I00
sbag0
(g319
g2
Ntp1412
Rp1413
(dp1414
g38
(I8
I26
tp1415
sg324
I00
sg325
I00
sg326
Nsg327
I01
sbag0
(g319
g2
Ntp1416
Rp1417
(dp1418
g38
(I8
I27
tp1419
sg324
I00
sg325
I00
sg326
g134
sg327
I01
sbag0
(g319
g2
Ntp1420
Rp1421
(dp1422
g38
(I8
I28
tp1423
sg324
I00
sg325
I00
sg326
Nsg327
I01
sbag0
(g319
g2
Ntp1424
Rp1425
(dp1426
g38
(I8
I29
tp1427
sg324
I00
sg325
I00
sg326
Nsg327
I00
sbaa(lp1428
g0
(g319
g2
Ntp1429
Rp1430
(dp1431
g38
(I9
I0
tp1432
sg324
I00
sg325
I00
sg326
Nsg327
I00
sbag0
(g319
g2
Ntp1433
Rp1434
(dp1435
g38
(I9
I1
tp1436
sg324
I00
sg325
I00
sg326
Nsg327
I00
sbag0
(g319
g2
Ntp1437
Rp1438
(dp1439
g38
(I9
I2
tp1440
sg324
I00
sg325
I00
sg326
Nsg327
I01
sbag0
(g319
g2
Ntp1441
Rp1442
(dp1443
g38
(I9
I3
tp1444
sg324
I00
sg325
I00
sg326
Nsg327
I01
sbag0
(g319
g2
Ntp1445
Rp1446
(dp1447
g38
(I9
I4
tp1448
sg324
I00
sg325
I00
sg326
Nsg327
I01
sbag0
(g319
g2
Ntp1449
Rp1450
(dp1451
g38
(I9
I5
tp1452
sg324
I00
sg325
I00
sg326
Nsg327
I00
sbag0
(g319
g2
Ntp1453
Rp1454
(dp1455
g38
(I9
I6
tp1456
sg324
I00
sg325
I00
sg326
Nsg327
I00
sbag0
(g319
g2
Ntp1457
Rp1458
(dp1459
g38
(I9
I7
tp1460
sg324
I00
sg325
I00
sg326
Nsg327
I00
sbag0
(g319
g2
Ntp1461
Rp1462
(dp1463
g38
(I9
I8
tp1464
sg324
I00
sg325
I00
sg326
Nsg327
I00
sbag0
(g319
g2
Ntp1465
Rp1466
(dp1467
g38
(I9
I9
tp1468
sg324
I00
sg325
I00
sg326
Nsg327
I00
sbag0
(g319
g2
Ntp1469
Rp1470
(dp1471
g38
(I9
I10
tp1472
sg324
I00
sg325
I00
sg326
Nsg327
I00
sbag0
(g319
g2
Ntp1473
Rp1474
(dp1475
g38
(I9
I11
tp1476
sg324
I00
sg325
I00
sg326
Nsg327
I01
sbag0
(g319
g2
Ntp1477
Rp1478
(dp1479
g38
(I9
I12
tp1480
sg324
I00
sg325
I00
sg326
Nsg327
I01
sbag0
(g319
g2
Ntp1481
Rp1482
(dp1483
g38
(I9
I13
tp1484
sg324
I00
sg325
I00
sg326
g49
sg327
I01
sbag0
(g319
g2
Ntp1485
Rp1486
(dp1487
g38
(I9
I14
tp1488
sg324
I00
sg325
I00
sg326
Nsg327
I00
sbag0
(g319
g2
Ntp1489
Rp1490
(dp1491
g38
(I9
I15
tp1492
sg324
I00
sg325
I00
sg326
Nsg327
I00
sbag0
(g319
g2
Ntp1493
Rp1494
(dp1495
g38
(I9
I16
tp1496
sg324
I00
sg325
I00
sg326
Nsg327
I00
sbag0
(g319
g2
Ntp1497
Rp1498
(dp1499
g38
(I9
I17
tp1500
sg324
I00
sg325
I00
sg326
Nsg327
I00
sbag0
(g319
g2
Ntp1501
Rp1502
(dp1503
g38
(I9
I18
tp1504
sg324
I00
sg325
I00
sg326
Nsg327
I00
sbag0
(g319
g2
Ntp1505
Rp1506
(dp1507
g38
(I9
I19
tp1508
sg324
I00
sg325
I00
sg326
Nsg327
I00
sbag0
(g319
g2
Ntp1509
Rp1510
(dp1511
g38
(I9
I20
tp1512
sg324
I00
sg325
I00
sg326
Nsg327
I00
sbag0
(g319
g2
Ntp1513
Rp1514
(dp1515
g38
(I9
I21
tp1516
sg324
I00
sg325
I00
sg326
Nsg327
I00
sbag0
(g319
g2
Ntp1517
Rp1518
(dp1519
g38
(I9
I22
tp1520
sg324
I00
sg325
I00
sg326
Nsg327
I00
sbag0
(g319
g2
Ntp1521
Rp1522
(dp1523
g38
(I9
I23
tp1524
sg324
I00
sg325
I00
sg326
Nsg327
I00
sbag0
(g319
g2
Ntp1525
Rp1526
(dp1527
g38
(I9
I24
tp1528
sg324
I00
sg325
I00
sg326
Nsg327
I00
sbag0
(g319
g2
Ntp1529
Rp1530
(dp1531
g38
(I9
I25
tp1532
sg324
I00
sg325
I00
sg326
Nsg327
I00
sbag0
(g319
g2
Ntp1533
Rp1534
(dp1535
g38
(I9
I26
tp1536
sg324
I00
sg325
I00
sg326
Nsg327
I01
sbag0
(g319
g2
Ntp1537
Rp1538
(dp1539
g38
(I9
I27
tp1540
sg324
I00
sg325
I00
sg326
g134
sg327
I01
sbag0
(g319
g2
Ntp1541
Rp1542
(dp1543
g38
(I9
I28
tp1544
sg324
I00
sg325
I00
sg326
Nsg327
I01
sbag0
(g319
g2
Ntp1545
Rp1546
(dp1547
g38
(I9
I29
tp1548
sg324
I00
sg325
I00
sg326
Nsg327
I00
sbaa(lp1549
g0
(g319
g2
Ntp1550
Rp1551
(dp1552
g38
(I10
I0
tp1553
sg324
I00
sg325
I00
sg326
Nsg327
I00
sbag0
(g319
g2
Ntp1554
Rp1555
(dp1556
g38
(I10
I1
tp1557
sg324
I00
sg325
I00
sg326
Nsg327
I00
sbag0
(g319
g2
Ntp1558
Rp1559
(dp1560
g38
(I10
I2
tp1561
sg324
I00
sg325
I00
sg326
Nsg327
I01
sbag0
(g319
g2
Ntp1562
Rp1563
(dp1564
g38
(I10
I3
tp1565
sg324
I00
sg325
I00
sg326
Nsg327
I01
sbag0
(g319
g2
Ntp1566
Rp1567
(dp1568
g38
(I10
I4
tp1569
sg324
I00
sg325
I00
sg326
Nsg327
I01
sbag0
(g319
g2
Ntp1570
Rp1571
(dp1572
g38
(I10
I5
tp1573
sg324
I00
sg325
I00
sg326
Nsg327
I00
sbag0
(g319
g2
Ntp1574
Rp1575
(dp1576
g38
(I10
I6
tp1577
sg324
I00
sg325
I00
sg326
Nsg327
I00
sbag0
(g319
g2
Ntp1578
Rp1579
(dp1580
g38
(I10
I7
tp1581
sg324
I00
sg325
I00
sg326
Nsg327
I00
sbag0
(g319
g2
Ntp1582
Rp1583
(dp1584
g38
(I10
I8
tp1585
sg324
I00
sg325
I00
sg326
Nsg327
I00
sbag0
(g319
g2
Ntp1586
Rp1587
(dp1588
g38
(I10
I9
tp1589
sg324
I00
sg325
I00
sg326
Nsg327
I00
sbag0
(g319
g2
Ntp1590
Rp1591
(dp1592
g38
(I10
I10
tp1593
sg324
I00
sg325
I00
sg326
Nsg327
I00
sbag0
(g319
g2
Ntp1594
Rp1595
(dp1596
g38
(I10
I11
tp1597
sg324
I00
sg325
I00
sg326
Nsg327
I01
sbag0
(g319
g2
Ntp1598
Rp1599
(dp1600
g38
(I10
I12
tp1601
sg324
I00
sg325
I00
sg326
Nsg327
I01
sbag0
(g319
g2
Ntp1602
Rp1603
(dp1604
g38
(I10
I13
tp1605
sg324
I00
sg325
I00
sg326
Nsg327
I01
sbag0
(g319
g2
Ntp1606
Rp1607
(dp1608
g38
(I10
I14
tp1609
sg324
I00
sg325
I00
sg326
Nsg327
I01
sbag0
(g319
g2
Ntp1610
Rp1611
(dp1612
g38
(I10
I15
tp1613
sg324
I00
sg325
I00
sg326
Nsg327
I01
sbag0
(g319
g2
Ntp1614
Rp1615
(dp1616
g38
(I10
I16
tp1617
sg324
I00
sg325
I00
sg326
Nsg327
I00
sbag0
(g319
g2
Ntp1618
Rp1619
(dp1620
g38
(I10
I17
tp1621
sg324
I00
sg325
I00
sg326
Nsg327
I00
sbag0
(g319
g2
Ntp1622
Rp1623
(dp1624
g38
(I10
I18
tp1625
sg324
I00
sg325
I00
sg326
(iCoral
Coral
p1626
(dp1627
g18
(I242
I186
I111
tp1628
sbsg327
I01
sbag0
(g319
g2
Ntp1629
Rp1630
(dp1631
g38
(I10
I19
tp1632
sg324
I00
sg325
I00
sg326
Nsg327
I00
sbag0
(g319
g2
Ntp1633
Rp1634
(dp1635
g38
(I10
I20
tp1636
sg324
I00
sg325
I00
sg326
Nsg327
I00
sbag0
(g319
g2
Ntp1637
Rp1638
(dp1639
g38
(I10
I21
tp1640
sg324
I00
sg325
I00
sg326
Nsg327
I00
sbag0
(g319
g2
Ntp1641
Rp1642
(dp1643
g38
(I10
I22
tp1644
sg324
I00
sg325
I00
sg326
Nsg327
I00
sbag0
(g319
g2
Ntp1645
Rp1646
(dp1647
g38
(I10
I23
tp1648
sg324
I00
sg325
I00
sg326
Nsg327
I00
sbag0
(g319
g2
Ntp1649
Rp1650
(dp1651
g38
(I10
I24
tp1652
sg324
I00
sg325
I00
sg326
Nsg327
I00
sbag0
(g319
g2
Ntp1653
Rp1654
(dp1655
g38
(I10
I25
tp1656
sg324
I00
sg325
I00
sg326
Nsg327
I00
sbag0
(g319
g2
Ntp1657
Rp1658
(dp1659
g38
(I10
I26
tp1660
sg324
I00
sg325
I00
sg326
Nsg327
I00
sbag0
(g319
g2
Ntp1661
Rp1662
(dp1663
g38
(I10
I27
tp1664
sg324
I00
sg325
I00
sg326
g134
sg327
I01
sbag0
(g319
g2
Ntp1665
Rp1666
(dp1667
g38
(I10
I28
tp1668
sg324
I00
sg325
I00
sg326
Nsg327
I00
sbag0
(g319
g2
Ntp1669
Rp1670
(dp1671
g38
(I10
I29
tp1672
sg324
I00
sg325
I00
sg326
Nsg327
I00
sbaa(lp1673
g0
(g319
g2
Ntp1674
Rp1675
(dp1676
g38
(I11
I0
tp1677
sg324
I00
sg325
I00
sg326
Nsg327
I00
sbag0
(g319
g2
Ntp1678
Rp1679
(dp1680
g38
(I11
I1
tp1681
sg324
I00
sg325
I00
sg326
Nsg327
I00
sbag0
(g319
g2
Ntp1682
Rp1683
(dp1684
g38
(I11
I2
tp1685
sg324
I00
sg325
I00
sg326
Nsg327
I01
sbag0
(g319
g2
Ntp1686
Rp1687
(dp1688
g38
(I11
I3
tp1689
sg324
I00
sg325
I00
sg326
Nsg327
I01
sbag0
(g319
g2
Ntp1690
Rp1691
(dp1692
g38
(I11
I4
tp1693
sg324
I00
sg325
I00
sg326
Nsg327
I01
sbag0
(g319
g2
Ntp1694
Rp1695
(dp1696
g38
(I11
I5
tp1697
sg324
I00
sg325
I00
sg326
Nsg327
I00
sbag0
(g319
g2
Ntp1698
Rp1699
(dp1700
g38
(I11
I6
tp1701
sg324
I00
sg325
I00
sg326
Nsg327
I00
sbag0
(g319
g2
Ntp1702
Rp1703
(dp1704
g38
(I11
I7
tp1705
sg324
I00
sg325
I00
sg326
Nsg327
I00
sbag0
(g319
g2
Ntp1706
Rp1707
(dp1708
g38
(I11
I8
tp1709
sg324
I00
sg325
I00
sg326
(iCoral
Coral
p1710
(dp1711
g18
g1628
sbsg327
I01
sbag0
(g319
g2
Ntp1712
Rp1713
(dp1714
g38
(I11
I9
tp1715
sg324
I00
sg325
I00
sg326
Nsg327
I00
sbag0
(g319
g2
Ntp1716
Rp1717
(dp1718
g38
(I11
I10
tp1719
sg324
I00
sg325
I00
sg326
Nsg327
I00
sbag0
(g319
g2
Ntp1720
Rp1721
(dp1722
g38
(I11
I11
tp1723
sg324
I00
sg325
I00
sg326
Nsg327
I01
sbag0
(g319
g2
Ntp1724
Rp1725
(dp1726
g38
(I11
I12
tp1727
sg324
I00
sg325
I00
sg326
(iCoral
Coral
p1728
(dp1729
g18
g1628
sbsg327
I01
sbag0
(g319
g2
Ntp1730
Rp1731
(dp1732
g38
(I11
I13
tp1733
sg324
I00
sg325
I00
sg326
Nsg327
I01
sbag0
(g319
g2
Ntp1734
Rp1735
(dp1736
g38
(I11
I14
tp1737
sg324
I00
sg325
I00
sg326
Nsg327
I01
sbag0
(g319
g2
Ntp1738
Rp1739
(dp1740
g38
(I11
I15
tp1741
sg324
I00
sg325
I00
sg326
Nsg327
I01
sbag0
(g319
g2
Ntp1742
Rp1743
(dp1744
g38
(I11
I16
tp1745
sg324
I00
sg325
I00
sg326
Nsg327
I00
sbag0
(g319
g2
Ntp1746
Rp1747
(dp1748
g38
(I11
I17
tp1749
sg324
I00
sg325
I00
sg326
Nsg327
I00
sbag0
(g319
g2
Ntp1750
Rp1751
(dp1752
g38
(I11
I18
tp1753
sg324
I00
sg325
I00
sg326
Nsg327
I00
sbag0
(g319
g2
Ntp1754
Rp1755
(dp1756
g38
(I11
I19
tp1757
sg324
I00
sg325
I00
sg326
Nsg327
I00
sbag0
(g319
g2
Ntp1758
Rp1759
(dp1760
g38
(I11
I20
tp1761
sg324
I00
sg325
I00
sg326
(iCoral
Coral
p1762
(dp1763
g18
g1628
sbsg327
I01
sbag0
(g319
g2
Ntp1764
Rp1765
(dp1766
g38
(I11
I21
tp1767
sg324
I00
sg325
I00
sg326
(iCoral
Coral
p1768
(dp1769
g18
g1628
sbsg327
I01
sbag0
(g319
g2
Ntp1770
Rp1771
(dp1772
g38
(I11
I22
tp1773
sg324
I00
sg325
I00
sg326
Nsg327
I00
sbag0
(g319
g2
Ntp1774
Rp1775
(dp1776
g38
(I11
I23
tp1777
sg324
I00
sg325
I00
sg326
Nsg327
I00
sbag0
(g319
g2
Ntp1778
Rp1779
(dp1780
g38
(I11
I24
tp1781
sg324
I00
sg325
I00
sg326
Nsg327
I00
sbag0
(g319
g2
Ntp1782
Rp1783
(dp1784
g38
(I11
I25
tp1785
sg324
I00
sg325
I00
sg326
Nsg327
I00
sbag0
(g319
g2
Ntp1786
Rp1787
(dp1788
g38
(I11
I26
tp1789
sg324
I00
sg325
I00
sg326
Nsg327
I00
sbag0
(g319
g2
Ntp1790
Rp1791
(dp1792
g38
(I11
I27
tp1793
sg324
I00
sg325
I00
sg326
Nsg327
I00
sbag0
(g319
g2
Ntp1794
Rp1795
(dp1796
g38
(I11
I28
tp1797
sg324
I00
sg325
I00
sg326
Nsg327
I00
sbag0
(g319
g2
Ntp1798
Rp1799
(dp1800
g38
(I11
I29
tp1801
sg324
I00
sg325
I00
sg326
Nsg327
I00
sbaa(lp1802
g0
(g319
g2
Ntp1803
Rp1804
(dp1805
g38
(I12
I0
tp1806
sg324
I00
sg325
I00
sg326
Nsg327
I00
sbag0
(g319
g2
Ntp1807
Rp1808
(dp1809
g38
(I12
I1
tp1810
sg324
I00
sg325
I00
sg326
Nsg327
I00
sbag0
(g319
g2
Ntp1811
Rp1812
(dp1813
g38
(I12
I2
tp1814
sg324
I00
sg325
I00
sg326
Nsg327
I01
sbag0
(g319
g2
Ntp1815
Rp1816
(dp1817
g38
(I12
I3
tp1818
sg324
I00
sg325
I00
sg326
Nsg327
I01
sbag0
(g319
g2
Ntp1819
Rp1820
(dp1821
g38
(I12
I4
tp1822
sg324
I00
sg325
I00
sg326
Nsg327
I01
sbag0
(g319
g2
Ntp1823
Rp1824
(dp1825
g38
(I12
I5
tp1826
sg324
I00
sg325
I00
sg326
Nsg327
I00
sbag0
(g319
g2
Ntp1827
Rp1828
(dp1829
g38
(I12
I6
tp1830
sg324
I00
sg325
I00
sg326
Nsg327
I00
sbag0
(g319
g2
Ntp1831
Rp1832
(dp1833
g38
(I12
I7
tp1834
sg324
I00
sg325
I00
sg326
Nsg327
I00
sbag0
(g319
g2
Ntp1835
Rp1836
(dp1837
g38
(I12
I8
tp1838
sg324
I00
sg325
I00
sg326
Nsg327
I00
sbag0
(g319
g2
Ntp1839
Rp1840
(dp1841
g38
(I12
I9
tp1842
sg324
I00
sg325
I00
sg326
Nsg327
I00
sbag0
(g319
g2
Ntp1843
Rp1844
(dp1845
g38
(I12
I10
tp1846
sg324
I00
sg325
I00
sg326
(iCoral
Coral
p1847
(dp1848
g18
g1628
sbsg327
I01
sbag0
(g319
g2
Ntp1849
Rp1850
(dp1851
g38
(I12
I11
tp1852
sg324
I00
sg325
I00
sg326
Nsg327
I01
sbag0
(g319
g2
Ntp1853
Rp1854
(dp1855
g38
(I12
I12
tp1856
sg324
I00
sg325
I00
sg326
Nsg327
I01
sbag0
(g319
g2
Ntp1857
Rp1858
(dp1859
g38
(I12
I13
tp1860
sg324
I00
sg325
I00
sg326
Nsg327
I01
sbag0
(g319
g2
Ntp1861
Rp1862
(dp1863
g38
(I12
I14
tp1864
sg324
I00
sg325
I00
sg326
Nsg327
I01
sbag0
(g319
g2
Ntp1865
Rp1866
(dp1867
g38
(I12
I15
tp1868
sg324
I00
sg325
I00
sg326
Nsg327
I01
sbag0
(g319
g2
Ntp1869
Rp1870
(dp1871
g38
(I12
I16
tp1872
sg324
I00
sg325
I00
sg326
Nsg327
I00
sbag0
(g319
g2
Ntp1873
Rp1874
(dp1875
g38
(I12
I17
tp1876
sg324
I00
sg325
I00
sg326
Nsg327
I00
sbag0
(g319
g2
Ntp1877
Rp1878
(dp1879
g38
(I12
I18
tp1880
sg324
I00
sg325
I00
sg326
Nsg327
I00
sbag0
(g319
g2
Ntp1881
Rp1882
(dp1883
g38
(I12
I19
tp1884
sg324
I00
sg325
I00
sg326
Nsg327
I00
sbag0
(g319
g2
Ntp1885
Rp1886
(dp1887
g38
(I12
I20
tp1888
sg324
I00
sg325
I00
sg326
Nsg327
I00
sbag0
(g319
g2
Ntp1889
Rp1890
(dp1891
g38
(I12
I21
tp1892
sg324
I00
sg325
I00
sg326
Nsg327
I00
sbag0
(g319
g2
Ntp1893
Rp1894
(dp1895
g38
(I12
I22
tp1896
sg324
I00
sg325
I00
sg326
Nsg327
I00
sbag0
(g319
g2
Ntp1897
Rp1898
(dp1899
g38
(I12
I23
tp1900
sg324
I00
sg325
I00
sg326
Nsg327
I00
sbag0
(g319
g2
Ntp1901
Rp1902
(dp1903
g38
(I12
I24
tp1904
sg324
I00
sg325
I00
sg326
Nsg327
I00
sbag0
(g319
g2
Ntp1905
Rp1906
(dp1907
g38
(I12
I25
tp1908
sg324
I00
sg325
I00
sg326
(iCoral
Coral
p1909
(dp1910
g18
g1628
sbsg327
I01
sbag0
(g319
g2
Ntp1911
Rp1912
(dp1913
g38
(I12
I26
tp1914
sg324
I00
sg325
I00
sg326
Nsg327
I00
sbag0
(g319
g2
Ntp1915
Rp1916
(dp1917
g38
(I12
I27
tp1918
sg324
I00
sg325
I00
sg326
Nsg327
I00
sbag0
(g319
g2
Ntp1919
Rp1920
(dp1921
g38
(I12
I28
tp1922
sg324
I00
sg325
I00
sg326
Nsg327
I00
sbag0
(g319
g2
Ntp1923
Rp1924
(dp1925
g38
(I12
I29
tp1926
sg324
I00
sg325
I00
sg326
Nsg327
I00
sbaa(lp1927
g0
(g319
g2
Ntp1928
Rp1929
(dp1930
g38
(I13
I0
tp1931
sg324
I00
sg325
I00
sg326
Nsg327
I00
sbag0
(g319
g2
Ntp1932
Rp1933
(dp1934
g38
(I13
I1
tp1935
sg324
I00
sg325
I00
sg326
Nsg327
I00
sbag0
(g319
g2
Ntp1936
Rp1937
(dp1938
g38
(I13
I2
tp1939
sg324
I00
sg325
I00
sg326
Nsg327
I01
sbag0
(g319
g2
Ntp1940
Rp1941
(dp1942
g38
(I13
I3
tp1943
sg324
I00
sg325
I00
sg326
Nsg327
I01
sbag0
(g319
g2
Ntp1944
Rp1945
(dp1946
g38
(I13
I4
tp1947
sg324
I00
sg325
I00
sg326
Nsg327
I01
sbag0
(g319
g2
Ntp1948
Rp1949
(dp1950
g38
(I13
I5
tp1951
sg324
I00
sg325
I00
sg326
Nsg327
I00
sbag0
(g319
g2
Ntp1952
Rp1953
(dp1954
g38
(I13
I6
tp1955
sg324
I00
sg325
I00
sg326
Nsg327
I00
sbag0
(g319
g2
Ntp1956
Rp1957
(dp1958
g38
(I13
I7
tp1959
sg324
I00
sg325
I00
sg326
Nsg327
I00
sbag0
(g319
g2
Ntp1960
Rp1961
(dp1962
g38
(I13
I8
tp1963
sg324
I00
sg325
I00
sg326
(iCoral
Coral
p1964
(dp1965
g18
g1628
sbsg327
I01
sbag0
(g319
g2
Ntp1966
Rp1967
(dp1968
g38
(I13
I9
tp1969
sg324
I00
sg325
I00
sg326
Nsg327
I00
sbag0
(g319
g2
Ntp1970
Rp1971
(dp1972
g38
(I13
I10
tp1973
sg324
I00
sg325
I00
sg326
Nsg327
I00
sbag0
(g319
g2
Ntp1974
Rp1975
(dp1976
g38
(I13
I11
tp1977
sg324
I00
sg325
I00
sg326
Nsg327
I01
sbag0
(g319
g2
Ntp1978
Rp1979
(dp1980
g38
(I13
I12
tp1981
sg324
I00
sg325
I00
sg326
(iCoral
Coral
p1982
(dp1983
g18
g1628
sbsg327
I01
sbag0
(g319
g2
Ntp1984
Rp1985
(dp1986
g38
(I13
I13
tp1987
sg324
I00
sg325
I00
sg326
Nsg327
I01
sbag0
(g319
g2
Ntp1988
Rp1989
(dp1990
g38
(I13
I14
tp1991
sg324
I00
sg325
I00
sg326
(iCoral
Coral
p1992
(dp1993
g18
g1628
sbsg327
I01
sbag0
(g319
g2
Ntp1994
Rp1995
(dp1996
g38
(I13
I15
tp1997
sg324
I00
sg325
I00
sg326
Nsg327
I01
sbag0
(g319
g2
Ntp1998
Rp1999
(dp2000
g38
(I13
I16
tp2001
sg324
I00
sg325
I00
sg326
Nsg327
I00
sbag0
(g319
g2
Ntp2002
Rp2003
(dp2004
g38
(I13
I17
tp2005
sg324
I00
sg325
I00
sg326
Nsg327
I00
sbag0
(g319
g2
Ntp2006
Rp2007
(dp2008
g38
(I13
I18
tp2009
sg324
I00
sg325
I00
sg326
Nsg327
I00
sbag0
(g319
g2
Ntp2010
Rp2011
(dp2012
g38
(I13
I19
tp2013
sg324
I00
sg325
I00
sg326
Nsg327
I00
sbag0
(g319
g2
Ntp2014
Rp2015
(dp2016
g38
(I13
I20
tp2017
sg324
I00
sg325
I00
sg326
Nsg327
I00
sbag0
(g319
g2
Ntp2018
Rp2019
(dp2020
g38
(I13
I21
tp2021
sg324
I00
sg325
I00
sg326
Nsg327
I00
sbag0
(g319
g2
Ntp2022
Rp2023
(dp2024
g38
(I13
I22
tp2025
sg324
I00
sg325
I00
sg326
Nsg327
I00
sbag0
(g319
g2
Ntp2026
Rp2027
(dp2028
g38
(I13
I23
tp2029
sg324
I00
sg325
I00
sg326
Nsg327
I00
sbag0
(g319
g2
Ntp2030
Rp2031
(dp2032
g38
(I13
I24
tp2033
sg324
I00
sg325
I00
sg326
(iCoral
Coral
p2034
(dp2035
g18
g1628
sbsg327
I01
sbag0
(g319
g2
Ntp2036
Rp2037
(dp2038
g38
(I13
I25
tp2039
sg324
I00
sg325
I00
sg326
Nsg327
I00
sbag0
(g319
g2
Ntp2040
Rp2041
(dp2042
g38
(I13
I26
tp2043
sg324
I00
sg325
I00
sg326
Nsg327
I00
sbag0
(g319
g2
Ntp2044
Rp2045
(dp2046
g38
(I13
I27
tp2047
sg324
I00
sg325
I00
sg326
Nsg327
I00
sbag0
(g319
g2
Ntp2048
Rp2049
(dp2050
g38
(I13
I28
tp2051
sg324
I00
sg325
I00
sg326
Nsg327
I00
sbag0
(g319
g2
Ntp2052
Rp2053
(dp2054
g38
(I13
I29
tp2055
sg324
I00
sg325
I00
sg326
Nsg327
I00
sbaa(lp2056
g0
(g319
g2
Ntp2057
Rp2058
(dp2059
g38
(I14
I0
tp2060
sg324
I00
sg325
I00
sg326
Nsg327
I00
sbag0
(g319
g2
Ntp2061
Rp2062
(dp2063
g38
(I14
I1
tp2064
sg324
I00
sg325
I00
sg326
Nsg327
I00
sbag0
(g319
g2
Ntp2065
Rp2066
(dp2067
g38
(I14
I2
tp2068
sg324
I00
sg325
I00
sg326
Nsg327
I01
sbag0
(g319
g2
Ntp2069
Rp2070
(dp2071
g38
(I14
I3
tp2072
sg324
I00
sg325
I00
sg326
Nsg327
I01
sbag0
(g319
g2
Ntp2073
Rp2074
(dp2075
g38
(I14
I4
tp2076
sg324
I00
sg325
I00
sg326
Nsg327
I01
sbag0
(g319
g2
Ntp2077
Rp2078
(dp2079
g38
(I14
I5
tp2080
sg324
I00
sg325
I00
sg326
Nsg327
I00
sbag0
(g319
g2
Ntp2081
Rp2082
(dp2083
g38
(I14
I6
tp2084
sg324
I00
sg325
I00
sg326
g207
sg327
I00
sbag0
(g319
g2
Ntp2085
Rp2086
(dp2087
g38
(I14
I7
tp2088
sg324
I00
sg325
I00
sg326
g207
sg327
I00
sbag0
(g319
g2
Ntp2089
Rp2090
(dp2091
g38
(I14
I8
tp2092
sg324
I00
sg325
I00
sg326
g207
sg327
I00
sbag0
(g319
g2
Ntp2093
Rp2094
(dp2095
g38
(I14
I9
tp2096
sg324
I00
sg325
I00
sg326
g207
sg327
I00
sbag0
(g319
g2
Ntp2097
Rp2098
(dp2099
g38
(I14
I10
tp2100
sg324
I00
sg325
I00
sg326
Nsg327
I00
sbag0
(g319
g2
Ntp2101
Rp2102
(dp2103
g38
(I14
I11
tp2104
sg324
I00
sg325
I00
sg326
Nsg327
I01
sbag0
(g319
g2
Ntp2105
Rp2106
(dp2107
g38
(I14
I12
tp2108
sg324
I00
sg325
I00
sg326
Nsg327
I01
sbag0
(g319
g2
Ntp2109
Rp2110
(dp2111
g38
(I14
I13
tp2112
sg324
I00
sg325
I00
sg326
Nsg327
I01
sbag0
(g319
g2
Ntp2113
Rp2114
(dp2115
g38
(I14
I14
tp2116
sg324
I00
sg325
I00
sg326
Nsg327
I01
sbag0
(g319
g2
Ntp2117
Rp2118
(dp2119
g38
(I14
I15
tp2120
sg324
I00
sg325
I00
sg326
Nsg327
I01
sbag0
(g319
g2
Ntp2121
Rp2122
(dp2123
g38
(I14
I16
tp2124
sg324
I00
sg325
I00
sg326
Nsg327
I00
sbag0
(g319
g2
Ntp2125
Rp2126
(dp2127
g38
(I14
I17
tp2128
sg324
I00
sg325
I00
sg326
Nsg327
I00
sbag0
(g319
g2
Ntp2129
Rp2130
(dp2131
g38
(I14
I18
tp2132
sg324
I00
sg325
I00
sg326
(iCoral
Coral
p2133
(dp2134
g18
g1628
sbsg327
I01
sbag0
(g319
g2
Ntp2135
Rp2136
(dp2137
g38
(I14
I19
tp2138
sg324
I00
sg325
I00
sg326
Nsg327
I00
sbag0
(g319
g2
Ntp2139
Rp2140
(dp2141
g38
(I14
I20
tp2142
sg324
I00
sg325
I00
sg326
Nsg327
I00
sbag0
(g319
g2
Ntp2143
Rp2144
(dp2145
g38
(I14
I21
tp2146
sg324
I00
sg325
I00
sg326
Nsg327
I00
sbag0
(g319
g2
Ntp2147
Rp2148
(dp2149
g38
(I14
I22
tp2150
sg324
I00
sg325
I00
sg326
Nsg327
I00
sbag0
(g319
g2
Ntp2151
Rp2152
(dp2153
g38
(I14
I23
tp2154
sg324
I00
sg325
I00
sg326
Nsg327
I00
sbag0
(g319
g2
Ntp2155
Rp2156
(dp2157
g38
(I14
I24
tp2158
sg324
I00
sg325
I00
sg326
Nsg327
I00
sbag0
(g319
g2
Ntp2159
Rp2160
(dp2161
g38
(I14
I25
tp2162
sg324
I00
sg325
I00
sg326
Nsg327
I00
sbag0
(g319
g2
Ntp2163
Rp2164
(dp2165
g38
(I14
I26
tp2166
sg324
I00
sg325
I00
sg326
Nsg327
I00
sbag0
(g319
g2
Ntp2167
Rp2168
(dp2169
g38
(I14
I27
tp2170
sg324
I00
sg325
I00
sg326
Nsg327
I00
sbag0
(g319
g2
Ntp2171
Rp2172
(dp2173
g38
(I14
I28
tp2174
sg324
I00
sg325
I00
sg326
Nsg327
I00
sbag0
(g319
g2
Ntp2175
Rp2176
(dp2177
g38
(I14
I29
tp2178
sg324
I00
sg325
I00
sg326
Nsg327
I00
sbaa(lp2179
g0
(g319
g2
Ntp2180
Rp2181
(dp2182
g38
(I15
I0
tp2183
sg324
I00
sg325
I00
sg326
Nsg327
I00
sbag0
(g319
g2
Ntp2184
Rp2185
(dp2186
g38
(I15
I1
tp2187
sg324
I00
sg325
I00
sg326
Nsg327
I00
sbag0
(g319
g2
Ntp2188
Rp2189
(dp2190
g38
(I15
I2
tp2191
sg324
I00
sg325
I00
sg326
Nsg327
I01
sbag0
(g319
g2
Ntp2192
Rp2193
(dp2194
g38
(I15
I3
tp2195
sg324
I00
sg325
I00
sg326
g13
sg327
I01
sbag0
(g319
g2
Ntp2196
Rp2197
(dp2198
g38
(I15
I4
tp2199
sg324
I00
sg325
I00
sg326
Nsg327
I01
sbag0
(g319
g2
Ntp2200
Rp2201
(dp2202
g38
(I15
I5
tp2203
sg324
I00
sg325
I00
sg326
Nsg327
I01
sbag0
(g319
g2
Ntp2204
Rp2205
(dp2206
g38
(I15
I6
tp2207
sg324
I00
sg325
I00
sg326
Nsg327
I01
sbag0
(g319
g2
Ntp2208
Rp2209
(dp2210
g38
(I15
I7
tp2211
sg324
I00
sg325
I00
sg326
Nsg327
I01
sbag0
(g319
g2
Ntp2212
Rp2213
(dp2214
g38
(I15
I8
tp2215
sg324
I00
sg325
I00
sg326
Nsg327
I00
sbag0
(g319
g2
Ntp2216
Rp2217
(dp2218
g38
(I15
I9
tp2219
sg324
I00
sg325
I00
sg326
Nsg327
I00
sbag0
(g319
g2
Ntp2220
Rp2221
(dp2222
g38
(I15
I10
tp2223
sg324
I00
sg325
I00
sg326
Nsg327
I00
sbag0
(g319
g2
Ntp2224
Rp2225
(dp2226
g38
(I15
I11
tp2227
sg324
I00
sg325
I00
sg326
Nsg327
I01
sbag0
(g319
g2
Ntp2228
Rp2229
(dp2230
g38
(I15
I12
tp2231
sg324
I00
sg325
I00
sg326
Nsg327
I01
sbag0
(g319
g2
Ntp2232
Rp2233
(dp2234
g38
(I15
I13
tp2235
sg324
I00
sg325
I00
sg326
Nsg327
I01
sbag0
(g319
g2
Ntp2236
Rp2237
(dp2238
g38
(I15
I14
tp2239
sg324
I00
sg325
I00
sg326
g90
sg327
I01
sbag0
(g319
g2
Ntp2240
Rp2241
(dp2242
g38
(I15
I15
tp2243
sg324
I00
sg325
I00
sg326
Nsg327
I01
sbag0
(g319
g2
Ntp2244
Rp2245
(dp2246
g38
(I15
I16
tp2247
sg324
I00
sg325
I00
sg326
Nsg327
I00
sbag0
(g319
g2
Ntp2248
Rp2249
(dp2250
g38
(I15
I17
tp2251
sg324
I00
sg325
I00
sg326
Nsg327
I00
sbag0
(g319
g2
Ntp2252
Rp2253
(dp2254
g38
(I15
I18
tp2255
sg324
I00
sg325
I00
sg326
Nsg327
I00
sbag0
(g319
g2
Ntp2256
Rp2257
(dp2258
g38
(I15
I19
tp2259
sg324
I00
sg325
I00
sg326
Nsg327
I00
sbag0
(g319
g2
Ntp2260
Rp2261
(dp2262
g38
(I15
I20
tp2263
sg324
I00
sg325
I00
sg326
Nsg327
I00
sbag0
(g319
g2
Ntp2264
Rp2265
(dp2266
g38
(I15
I21
tp2267
sg324
I00
sg325
I00
sg326
(iCoral
Coral
p2268
(dp2269
g18
g1628
sbsg327
I01
sbag0
(g319
g2
Ntp2270
Rp2271
(dp2272
g38
(I15
I22
tp2273
sg324
I00
sg325
I00
sg326
Nsg327
I00
sbag0
(g319
g2
Ntp2274
Rp2275
(dp2276
g38
(I15
I23
tp2277
sg324
I00
sg325
I00
sg326
Nsg327
I00
sbag0
(g319
g2
Ntp2278
Rp2279
(dp2280
g38
(I15
I24
tp2281
sg324
I00
sg325
I00
sg326
Nsg327
I00
sbag0
(g319
g2
Ntp2282
Rp2283
(dp2284
g38
(I15
I25
tp2285
sg324
I00
sg325
I00
sg326
Nsg327
I00
sbag0
(g319
g2
Ntp2286
Rp2287
(dp2288
g38
(I15
I26
tp2289
sg324
I00
sg325
I00
sg326
Nsg327
I00
sbag0
(g319
g2
Ntp2290
Rp2291
(dp2292
g38
(I15
I27
tp2293
sg324
I00
sg325
I00
sg326
Nsg327
I00
sbag0
(g319
g2
Ntp2294
Rp2295
(dp2296
g38
(I15
I28
tp2297
sg324
I00
sg325
I00
sg326
Nsg327
I00
sbag0
(g319
g2
Ntp2298
Rp2299
(dp2300
g38
(I15
I29
tp2301
sg324
I00
sg325
I00
sg326
Nsg327
I00
sbaa(lp2302
g0
(g319
g2
Ntp2303
Rp2304
(dp2305
g38
(I16
I0
tp2306
sg324
I00
sg325
I00
sg326
Nsg327
I00
sbag0
(g319
g2
Ntp2307
Rp2308
(dp2309
g38
(I16
I1
tp2310
sg324
I00
sg325
I00
sg326
Nsg327
I00
sbag0
(g319
g2
Ntp2311
Rp2312
(dp2313
g38
(I16
I2
tp2314
sg324
I00
sg325
I00
sg326
Nsg327
I01
sbag0
(g319
g2
Ntp2315
Rp2316
(dp2317
g38
(I16
I3
tp2318
sg324
I00
sg325
I00
sg326
g13
sg327
I01
sbag0
(g319
g2
Ntp2319
Rp2320
(dp2321
g38
(I16
I4
tp2322
sg324
I00
sg325
I00
sg326
Nsg327
I01
sbag0
(g319
g2
Ntp2323
Rp2324
(dp2325
g38
(I16
I5
tp2326
sg324
I00
sg325
I00
sg326
Nsg327
I01
sbag0
(g319
g2
Ntp2327
Rp2328
(dp2329
g38
(I16
I6
tp2330
sg324
I00
sg325
I00
sg326
Nsg327
I01
sbag0
(g319
g2
Ntp2331
Rp2332
(dp2333
g38
(I16
I7
tp2334
sg324
I00
sg325
I00
sg326
Nsg327
I01
sbag0
(g319
g2
Ntp2335
Rp2336
(dp2337
g38
(I16
I8
tp2338
sg324
I00
sg325
I00
sg326
Nsg327
I01
sbag0
(g319
g2
Ntp2339
Rp2340
(dp2341
g38
(I16
I9
tp2342
sg324
I00
sg325
I00
sg326
Nsg327
I01
sbag0
(g319
g2
Ntp2343
Rp2344
(dp2345
g38
(I16
I10
tp2346
sg324
I00
sg325
I00
sg326
Nsg327
I00
sbag0
(g319
g2
Ntp2347
Rp2348
(dp2349
g38
(I16
I11
tp2350
sg324
I00
sg325
I00
sg326
Nsg327
I01
sbag0
(g319
g2
Ntp2351
Rp2352
(dp2353
g38
(I16
I12
tp2354
sg324
I00
sg325
I00
sg326
Nsg327
I01
sbag0
(g319
g2
Ntp2355
Rp2356
(dp2357
g38
(I16
I13
tp2358
sg324
I00
sg325
I00
sg326
Nsg327
I01
sbag0
(g319
g2
Ntp2359
Rp2360
(dp2361
g38
(I16
I14
tp2362
sg324
I00
sg325
I00
sg326
g90
sg327
I01
sbag0
(g319
g2
Ntp2363
Rp2364
(dp2365
g38
(I16
I15
tp2366
sg324
I00
sg325
I00
sg326
Nsg327
I01
sbag0
(g319
g2
Ntp2367
Rp2368
(dp2369
g38
(I16
I16
tp2370
sg324
I00
sg325
I00
sg326
Nsg327
I00
sbag0
(g319
g2
Ntp2371
Rp2372
(dp2373
g38
(I16
I17
tp2374
sg324
I00
sg325
I00
sg326
Nsg327
I00
sbag0
(g319
g2
Ntp2375
Rp2376
(dp2377
g38
(I16
I18
tp2378
sg324
I00
sg325
I00
sg326
Nsg327
I00
sbag0
(g319
g2
Ntp2379
Rp2380
(dp2381
g38
(I16
I19
tp2382
sg324
I00
sg325
I00
sg326
Nsg327
I00
sbag0
(g319
g2
Ntp2383
Rp2384
(dp2385
g38
(I16
I20
tp2386
sg324
I00
sg325
I00
sg326
Nsg327
I00
sbag0
(g319
g2
Ntp2387
Rp2388
(dp2389
g38
(I16
I21
tp2390
sg324
I00
sg325
I00
sg326
Nsg327
I00
sbag0
(g319
g2
Ntp2391
Rp2392
(dp2393
g38
(I16
I22
tp2394
sg324
I00
sg325
I00
sg326
(iCoral
Coral
p2395
(dp2396
g18
g1628
sbsg327
I01
sbag0
(g319
g2
Ntp2397
Rp2398
(dp2399
g38
(I16
I23
tp2400
sg324
I00
sg325
I00
sg326
Nsg327
I00
sbag0
(g319
g2
Ntp2401
Rp2402
(dp2403
g38
(I16
I24
tp2404
sg324
I00
sg325
I00
sg326
Nsg327
I00
sbag0
(g319
g2
Ntp2405
Rp2406
(dp2407
g38
(I16
I25
tp2408
sg324
I00
sg325
I00
sg326
Nsg327
I00
sbag0
(g319
g2
Ntp2409
Rp2410
(dp2411
g38
(I16
I26
tp2412
sg324
I00
sg325
I00
sg326
(iCoral
Coral
p2413
(dp2414
g18
g1628
sbsg327
I01
sbag0
(g319
g2
Ntp2415
Rp2416
(dp2417
g38
(I16
I27
tp2418
sg324
I00
sg325
I00
sg326
Nsg327
I00
sbag0
(g319
g2
Ntp2419
Rp2420
(dp2421
g38
(I16
I28
tp2422
sg324
I00
sg325
I00
sg326
Nsg327
I00
sbag0
(g319
g2
Ntp2423
Rp2424
(dp2425
g38
(I16
I29
tp2426
sg324
I00
sg325
I00
sg326
Nsg327
I00
sbaa(lp2427
g0
(g319
g2
Ntp2428
Rp2429
(dp2430
g38
(I17
I0
tp2431
sg324
I00
sg325
I00
sg326
Nsg327
I00
sbag0
(g319
g2
Ntp2432
Rp2433
(dp2434
g38
(I17
I1
tp2435
sg324
I00
sg325
I00
sg326
Nsg327
I00
sbag0
(g319
g2
Ntp2436
Rp2437
(dp2438
g38
(I17
I2
tp2439
sg324
I00
sg325
I00
sg326
Nsg327
I01
sbag0
(g319
g2
Ntp2440
Rp2441
(dp2442
g38
(I17
I3
tp2443
sg324
I00
sg325
I00
sg326
g13
sg327
I01
sbag0
(g319
g2
Ntp2444
Rp2445
(dp2446
g38
(I17
I4
tp2447
sg324
I00
sg325
I00
sg326
Nsg327
I01
sbag0
(g319
g2
Ntp2448
Rp2449
(dp2450
g38
(I17
I5
tp2451
sg324
I00
sg325
I00
sg326
Nsg327
I01
sbag0
(g319
g2
Ntp2452
Rp2453
(dp2454
g38
(I17
I6
tp2455
sg324
I00
sg325
I00
sg326
Nsg327
I01
sbag0
(g319
g2
Ntp2456
Rp2457
(dp2458
g38
(I17
I7
tp2459
sg324
I00
sg325
I00
sg326
Nsg327
I01
sbag0
(g319
g2
Ntp2460
Rp2461
(dp2462
g38
(I17
I8
tp2463
sg324
I00
sg325
I00
sg326
Nsg327
I01
sbag0
(g319
g2
Ntp2464
Rp2465
(dp2466
g38
(I17
I9
tp2467
sg324
I00
sg325
I00
sg326
Nsg327
I01
sbag0
(g319
g2
Ntp2468
Rp2469
(dp2470
g38
(I17
I10
tp2471
sg324
I00
sg325
I00
sg326
Nsg327
I00
sbag0
(g319
g2
Ntp2472
Rp2473
(dp2474
g38
(I17
I11
tp2475
sg324
I00
sg325
I00
sg326
Nsg327
I01
sbag0
(g319
g2
Ntp2476
Rp2477
(dp2478
g38
(I17
I12
tp2479
sg324
I00
sg325
I00
sg326
Nsg327
I01
sbag0
(g319
g2
Ntp2480
Rp2481
(dp2482
g38
(I17
I13
tp2483
sg324
I00
sg325
I00
sg326
Nsg327
I01
sbag0
(g319
g2
Ntp2484
Rp2485
(dp2486
g38
(I17
I14
tp2487
sg324
I00
sg325
I00
sg326
g90
sg327
I01
sbag0
(g319
g2
Ntp2488
Rp2489
(dp2490
g38
(I17
I15
tp2491
sg324
I00
sg325
I00
sg326
Nsg327
I01
sbag0
(g319
g2
Ntp2492
Rp2493
(dp2494
g38
(I17
I16
tp2495
sg324
I00
sg325
I00
sg326
Nsg327
I00
sbag0
(g319
g2
Ntp2496
Rp2497
(dp2498
g38
(I17
I17
tp2499
sg324
I00
sg325
I00
sg326
Nsg327
I00
sbag0
(g319
g2
Ntp2500
Rp2501
(dp2502
g38
(I17
I18
tp2503
sg324
I00
sg325
I00
sg326
(iCoral
Coral
p2504
(dp2505
g18
g1628
sbsg327
I01
sbag0
(g319
g2
Ntp2506
Rp2507
(dp2508
g38
(I17
I19
tp2509
sg324
I00
sg325
I00
sg326
Nsg327
I00
sbag0
(g319
g2
Ntp2510
Rp2511
(dp2512
g38
(I17
I20
tp2513
sg324
I00
sg325
I00
sg326
Nsg327
I00
sbag0
(g319
g2
Ntp2514
Rp2515
(dp2516
g38
(I17
I21
tp2517
sg324
I00
sg325
I00
sg326
Nsg327
I00
sbag0
(g319
g2
Ntp2518
Rp2519
(dp2520
g38
(I17
I22
tp2521
sg324
I00
sg325
I00
sg326
Nsg327
I00
sbag0
(g319
g2
Ntp2522
Rp2523
(dp2524
g38
(I17
I23
tp2525
sg324
I00
sg325
I00
sg326
Nsg327
I00
sbag0
(g319
g2
Ntp2526
Rp2527
(dp2528
g38
(I17
I24
tp2529
sg324
I00
sg325
I00
sg326
Nsg327
I00
sbag0
(g319
g2
Ntp2530
Rp2531
(dp2532
g38
(I17
I25
tp2533
sg324
I00
sg325
I00
sg326
Nsg327
I00
sbag0
(g319
g2
Ntp2534
Rp2535
(dp2536
g38
(I17
I26
tp2537
sg324
I00
sg325
I00
sg326
(iCoral
Coral
p2538
(dp2539
g18
g1628
sbsg327
I01
sbag0
(g319
g2
Ntp2540
Rp2541
(dp2542
g38
(I17
I27
tp2543
sg324
I00
sg325
I00
sg326
Nsg327
I00
sbag0
(g319
g2
Ntp2544
Rp2545
(dp2546
g38
(I17
I28
tp2547
sg324
I00
sg325
I00
sg326
Nsg327
I00
sbag0
(g319
g2
Ntp2548
Rp2549
(dp2550
g38
(I17
I29
tp2551
sg324
I00
sg325
I00
sg326
Nsg327
I00
sbaa(lp2552
g0
(g319
g2
Ntp2553
Rp2554
(dp2555
g38
(I18
I0
tp2556
sg324
I00
sg325
I00
sg326
Nsg327
I00
sbag0
(g319
g2
Ntp2557
Rp2558
(dp2559
g38
(I18
I1
tp2560
sg324
I00
sg325
I00
sg326
Nsg327
I00
sbag0
(g319
g2
Ntp2561
Rp2562
(dp2563
g38
(I18
I2
tp2564
sg324
I00
sg325
I00
sg326
Nsg327
I01
sbag0
(g319
g2
Ntp2565
Rp2566
(dp2567
g38
(I18
I3
tp2568
sg324
I00
sg325
I00
sg326
g13
sg327
I01
sbag0
(g319
g2
Ntp2569
Rp2570
(dp2571
g38
(I18
I4
tp2572
sg324
I00
sg325
I00
sg326
Nsg327
I01
sbag0
(g319
g2
Ntp2573
Rp2574
(dp2575
g38
(I18
I5
tp2576
sg324
I00
sg325
I00
sg326
(iCoral
Coral
p2577
(dp2578
g18
g1628
sbsg327
I01
sbag0
(g319
g2
Ntp2579
Rp2580
(dp2581
g38
(I18
I6
tp2582
sg324
I00
sg325
I00
sg326
Nsg327
I01
sbag0
(g319
g2
Ntp2583
Rp2584
(dp2585
g38
(I18
I7
tp2586
sg324
I00
sg325
I00
sg326
Nsg327
I01
sbag0
(g319
g2
Ntp2587
Rp2588
(dp2589
g38
(I18
I8
tp2590
sg324
I00
sg325
I00
sg326
Nsg327
I01
sbag0
(g319
g2
Ntp2591
Rp2592
(dp2593
g38
(I18
I9
tp2594
sg324
I00
sg325
I00
sg326
Nsg327
I01
sbag0
(g319
g2
Ntp2595
Rp2596
(dp2597
g38
(I18
I10
tp2598
sg324
I00
sg325
I00
sg326
Nsg327
I00
sbag0
(g319
g2
Ntp2599
Rp2600
(dp2601
g38
(I18
I11
tp2602
sg324
I00
sg325
I00
sg326
(iCoral
Coral
p2603
(dp2604
g18
g1628
sbsg327
I01
sbag0
(g319
g2
Ntp2605
Rp2606
(dp2607
g38
(I18
I12
tp2608
sg324
I00
sg325
I00
sg326
Nsg327
I01
sbag0
(g319
g2
Ntp2609
Rp2610
(dp2611
g38
(I18
I13
tp2612
sg324
I00
sg325
I00
sg326
Nsg327
I01
sbag0
(g319
g2
Ntp2613
Rp2614
(dp2615
g38
(I18
I14
tp2616
sg324
I00
sg325
I00
sg326
g90
sg327
I01
sbag0
(g319
g2
Ntp2617
Rp2618
(dp2619
g38
(I18
I15
tp2620
sg324
I00
sg325
I00
sg326
Nsg327
I00
sbag0
(g319
g2
Ntp2621
Rp2622
(dp2623
g38
(I18
I16
tp2624
sg324
I00
sg325
I00
sg326
Nsg327
I00
sbag0
(g319
g2
Ntp2625
Rp2626
(dp2627
g38
(I18
I17
tp2628
sg324
I00
sg325
I00
sg326
Nsg327
I00
sbag0
(g319
g2
Ntp2629
Rp2630
(dp2631
g38
(I18
I18
tp2632
sg324
I00
sg325
I00
sg326
(iCoral
Coral
p2633
(dp2634
g18
g1628
sbsg327
I01
sbag0
(g319
g2
Ntp2635
Rp2636
(dp2637
g38
(I18
I19
tp2638
sg324
I00
sg325
I00
sg326
Nsg327
I00
sbag0
(g319
g2
Ntp2639
Rp2640
(dp2641
g38
(I18
I20
tp2642
sg324
I00
sg325
I00
sg326
Nsg327
I00
sbag0
(g319
g2
Ntp2643
Rp2644
(dp2645
g38
(I18
I21
tp2646
sg324
I00
sg325
I00
sg326
(iCoral
Coral
p2647
(dp2648
g18
g1628
sbsg327
I01
sbag0
(g319
g2
Ntp2649
Rp2650
(dp2651
g38
(I18
I22
tp2652
sg324
I00
sg325
I00
sg326
Nsg327
I00
sbag0
(g319
g2
Ntp2653
Rp2654
(dp2655
g38
(I18
I23
tp2656
sg324
I00
sg325
I00
sg326
Nsg327
I00
sbag0
(g319
g2
Ntp2657
Rp2658
(dp2659
g38
(I18
I24
tp2660
sg324
I00
sg325
I00
sg326
Nsg327
I00
sbag0
(g319
g2
Ntp2661
Rp2662
(dp2663
g38
(I18
I25
tp2664
sg324
I00
sg325
I00
sg326
Nsg327
I00
sbag0
(g319
g2
Ntp2665
Rp2666
(dp2667
g38
(I18
I26
tp2668
sg324
I00
sg325
I00
sg326
Nsg327
I00
sbag0
(g319
g2
Ntp2669
Rp2670
(dp2671
g38
(I18
I27
tp2672
sg324
I00
sg325
I00
sg326
Nsg327
I00
sbag0
(g319
g2
Ntp2673
Rp2674
(dp2675
g38
(I18
I28
tp2676
sg324
I00
sg325
I00
sg326
Nsg327
I00
sbag0
(g319
g2
Ntp2677
Rp2678
(dp2679
g38
(I18
I29
tp2680
sg324
I00
sg325
I00
sg326
Nsg327
I00
sbaa(lp2681
g0
(g319
g2
Ntp2682
Rp2683
(dp2684
g38
(I19
I0
tp2685
sg324
I00
sg325
I00
sg326
Nsg327
I00
sbag0
(g319
g2
Ntp2686
Rp2687
(dp2688
g38
(I19
I1
tp2689
sg324
I00
sg325
I00
sg326
Nsg327
I00
sbag0
(g319
g2
Ntp2690
Rp2691
(dp2692
g38
(I19
I2
tp2693
sg324
I00
sg325
I00
sg326
Nsg327
I00
sbag0
(g319
g2
Ntp2694
Rp2695
(dp2696
g38
(I19
I3
tp2697
sg324
I00
sg325
I00
sg326
g13
sg327
I01
sbag0
(g319
g2
Ntp2698
Rp2699
(dp2700
g38
(I19
I4
tp2701
sg324
I00
sg325
I00
sg326
Nsg327
I00
sbag0
(g319
g2
Ntp2702
Rp2703
(dp2704
g38
(I19
I5
tp2705
sg324
I00
sg325
I00
sg326
Nsg327
I01
sbag0
(g319
g2
Ntp2706
Rp2707
(dp2708
g38
(I19
I6
tp2709
sg324
I00
sg325
I00
sg326
Nsg327
I01
sbag0
(g319
g2
Ntp2710
Rp2711
(dp2712
g38
(I19
I7
tp2713
sg324
I00
sg325
I00
sg326
Nsg327
I01
sbag0
(g319
g2
Ntp2714
Rp2715
(dp2716
g38
(I19
I8
tp2717
sg324
I00
sg325
I00
sg326
Nsg327
I01
sbag0
(g319
g2
Ntp2718
Rp2719
(dp2720
g38
(I19
I9
tp2721
sg324
I00
sg325
I00
sg326
(iCoral
Coral
p2722
(dp2723
g18
g1628
sbsg327
I01
sbag0
(g319
g2
Ntp2724
Rp2725
(dp2726
g38
(I19
I10
tp2727
sg324
I00
sg325
I00
sg326
Nsg327
I00
sbag0
(g319
g2
Ntp2728
Rp2729
(dp2730
g38
(I19
I11
tp2731
sg324
I00
sg325
I00
sg326
(iCoral
Coral
p2732
(dp2733
g18
g1628
sbsg327
I01
sbag0
(g319
g2
Ntp2734
Rp2735
(dp2736
g38
(I19
I12
tp2737
sg324
I00
sg325
I00
sg326
g101
sg327
I01
sbag0
(g319
g2
Ntp2738
Rp2739
(dp2740
g38
(I19
I13
tp2741
sg324
I00
sg325
I00
sg326
Nsg327
I01
sbag0
(g319
g2
Ntp2742
Rp2743
(dp2744
g38
(I19
I14
tp2745
sg324
I00
sg325
I00
sg326
Nsg327
I00
sbag0
(g319
g2
Ntp2746
Rp2747
(dp2748
g38
(I19
I15
tp2749
sg324
I00
sg325
I00
sg326
Nsg327
I00
sbag0
(g319
g2
Ntp2750
Rp2751
(dp2752
g38
(I19
I16
tp2753
sg324
I00
sg325
I00
sg326
Nsg327
I00
sbag0
(g319
g2
Ntp2754
Rp2755
(dp2756
g38
(I19
I17
tp2757
sg324
I00
sg325
I00
sg326
Nsg327
I00
sbag0
(g319
g2
Ntp2758
Rp2759
(dp2760
g38
(I19
I18
tp2761
sg324
I00
sg325
I00
sg326
Nsg327
I00
sbag0
(g319
g2
Ntp2762
Rp2763
(dp2764
g38
(I19
I19
tp2765
sg324
I00
sg325
I00
sg326
Nsg327
I00
sbag0
(g319
g2
Ntp2766
Rp2767
(dp2768
g38
(I19
I20
tp2769
sg324
I00
sg325
I00
sg326
Nsg327
I00
sbag0
(g319
g2
Ntp2770
Rp2771
(dp2772
g38
(I19
I21
tp2773
sg324
I00
sg325
I00
sg326
(iCoral
Coral
p2774
(dp2775
g18
g1628
sbsg327
I01
sbag0
(g319
g2
Ntp2776
Rp2777
(dp2778
g38
(I19
I22
tp2779
sg324
I00
sg325
I00
sg326
Nsg327
I00
sbag0
(g319
g2
Ntp2780
Rp2781
(dp2782
g38
(I19
I23
tp2783
sg324
I00
sg325
I00
sg326
Nsg327
I00
sbag0
(g319
g2
Ntp2784
Rp2785
(dp2786
g38
(I19
I24
tp2787
sg324
I00
sg325
I00
sg326
Nsg327
I00
sbag0
(g319
g2
Ntp2788
Rp2789
(dp2790
g38
(I19
I25
tp2791
sg324
I00
sg325
I00
sg326
Nsg327
I00
sbag0
(g319
g2
Ntp2792
Rp2793
(dp2794
g38
(I19
I26
tp2795
sg324
I00
sg325
I00
sg326
Nsg327
I00
sbag0
(g319
g2
Ntp2796
Rp2797
(dp2798
g38
(I19
I27
tp2799
sg324
I00
sg325
I00
sg326
Nsg327
I00
sbag0
(g319
g2
Ntp2800
Rp2801
(dp2802
g38
(I19
I28
tp2803
sg324
I00
sg325
I00
sg326
Nsg327
I00
sbag0
(g319
g2
Ntp2804
Rp2805
(dp2806
g38
(I19
I29
tp2807
sg324
I00
sg325
I00
sg326
Nsg327
I00
sbaa(lp2808
g0
(g319
g2
Ntp2809
Rp2810
(dp2811
g38
(I20
I0
tp2812
sg324
I00
sg325
I00
sg326
Nsg327
I00
sbag0
(g319
g2
Ntp2813
Rp2814
(dp2815
g38
(I20
I1
tp2816
sg324
I00
sg325
I00
sg326
Nsg327
I00
sbag0
(g319
g2
Ntp2817
Rp2818
(dp2819
g38
(I20
I2
tp2820
sg324
I00
sg325
I00
sg326
Nsg327
I00
sbag0
(g319
g2
Ntp2821
Rp2822
(dp2823
g38
(I20
I3
tp2824
sg324
I00
sg325
I00
sg326
Nsg327
I00
sbag0
(g319
g2
Ntp2825
Rp2826
(dp2827
g38
(I20
I4
tp2828
sg324
I00
sg325
I00
sg326
Nsg327
I00
sbag0
(g319
g2
Ntp2829
Rp2830
(dp2831
g38
(I20
I5
tp2832
sg324
I00
sg325
I00
sg326
Nsg327
I01
sbag0
(g319
g2
Ntp2833
Rp2834
(dp2835
g38
(I20
I6
tp2836
sg324
I00
sg325
I00
sg326
g80
sg327
I01
sbag0
(g319
g2
Ntp2837
Rp2838
(dp2839
g38
(I20
I7
tp2840
sg324
I00
sg325
I00
sg326
Nsg327
I01
sbag0
(g319
g2
Ntp2841
Rp2842
(dp2843
g38
(I20
I8
tp2844
sg324
I00
sg325
I00
sg326
Nsg327
I01
sbag0
(g319
g2
Ntp2845
Rp2846
(dp2847
g38
(I20
I9
tp2848
sg324
I00
sg325
I00
sg326
Nsg327
I01
sbag0
(g319
g2
Ntp2849
Rp2850
(dp2851
g38
(I20
I10
tp2852
sg324
I00
sg325
I00
sg326
Nsg327
I00
sbag0
(g319
g2
Ntp2853
Rp2854
(dp2855
g38
(I20
I11
tp2856
sg324
I00
sg325
I00
sg326
Nsg327
I01
sbag0
(g319
g2
Ntp2857
Rp2858
(dp2859
g38
(I20
I12
tp2860
sg324
I00
sg325
I00
sg326
g101
sg327
I01
sbag0
(g319
g2
Ntp2861
Rp2862
(dp2863
g38
(I20
I13
tp2864
sg324
I00
sg325
I00
sg326
Nsg327
I01
sbag0
(g319
g2
Ntp2865
Rp2866
(dp2867
g38
(I20
I14
tp2868
sg324
I00
sg325
I00
sg326
Nsg327
I00
sbag0
(g319
g2
Ntp2869
Rp2870
(dp2871
g38
(I20
I15
tp2872
sg324
I00
sg325
I00
sg326
Nsg327
I00
sbag0
(g319
g2
Ntp2873
Rp2874
(dp2875
g38
(I20
I16
tp2876
sg324
I00
sg325
I00
sg326
Nsg327
I00
sbag0
(g319
g2
Ntp2877
Rp2878
(dp2879
g38
(I20
I17
tp2880
sg324
I00
sg325
I00
sg326
Nsg327
I00
sbag0
(g319
g2
Ntp2881
Rp2882
(dp2883
g38
(I20
I18
tp2884
sg324
I00
sg325
I00
sg326
Nsg327
I00
sbag0
(g319
g2
Ntp2885
Rp2886
(dp2887
g38
(I20
I19
tp2888
sg324
I00
sg325
I00
sg326
Nsg327
I00
sbag0
(g319
g2
Ntp2889
Rp2890
(dp2891
g38
(I20
I20
tp2892
sg324
I00
sg325
I00
sg326
Nsg327
I00
sbag0
(g319
g2
Ntp2893
Rp2894
(dp2895
g38
(I20
I21
tp2896
sg324
I00
sg325
I01
sg326
Nsg327
I01
sbag0
(g319
g2
Ntp2897
Rp2898
(dp2899
g38
(I20
I22
tp2900
sg324
I00
sg325
I01
sg326
Nsg327
I01
sbag0
(g319
g2
Ntp2901
Rp2902
(dp2903
g38
(I20
I23
tp2904
sg324
I00
sg325
I01
sg326
Nsg327
I01
sbag0
(g319
g2
Ntp2905
Rp2906
(dp2907
g38
(I20
I24
tp2908
sg324
I00
sg325
I01
sg326
Nsg327
I01
sbag0
(g319
g2
Ntp2909
Rp2910
(dp2911
g38
(I20
I25
tp2912
sg324
I00
sg325
I01
sg326
Nsg327
I01
sbag0
(g319
g2
Ntp2913
Rp2914
(dp2915
g38
(I20
I26
tp2916
sg324
I00
sg325
I00
sg326
Nsg327
I00
sbag0
(g319
g2
Ntp2917
Rp2918
(dp2919
g38
(I20
I27
tp2920
sg324
I00
sg325
I00
sg326
Nsg327
I00
sbag0
(g319
g2
Ntp2921
Rp2922
(dp2923
g38
(I20
I28
tp2924
sg324
I00
sg325
I00
sg326
Nsg327
I00
sbag0
(g319
g2
Ntp2925
Rp2926
(dp2927
g38
(I20
I29
tp2928
sg324
I00
sg325
I00
sg326
Nsg327
I00
sbaa(lp2929
g0
(g319
g2
Ntp2930
Rp2931
(dp2932
g38
(I21
I0
tp2933
sg324
I00
sg325
I00
sg326
Nsg327
I00
sbag0
(g319
g2
Ntp2934
Rp2935
(dp2936
g38
(I21
I1
tp2937
sg324
I00
sg325
I00
sg326
Nsg327
I00
sbag0
(g319
g2
Ntp2938
Rp2939
(dp2940
g38
(I21
I2
tp2941
sg324
I00
sg325
I00
sg326
Nsg327
I00
sbag0
(g319
g2
Ntp2942
Rp2943
(dp2944
g38
(I21
I3
tp2945
sg324
I00
sg325
I00
sg326
Nsg327
I00
sbag0
(g319
g2
Ntp2946
Rp2947
(dp2948
g38
(I21
I4
tp2949
sg324
I00
sg325
I00
sg326
Nsg327
I00
sbag0
(g319
g2
Ntp2950
Rp2951
(dp2952
g38
(I21
I5
tp2953
sg324
I00
sg325
I00
sg326
Nsg327
I01
sbag0
(g319
g2
Ntp2954
Rp2955
(dp2956
g38
(I21
I6
tp2957
sg324
I00
sg325
I00
sg326
g80
sg327
I01
sbag0
(g319
g2
Ntp2958
Rp2959
(dp2960
g38
(I21
I7
tp2961
sg324
I00
sg325
I00
sg326
Nsg327
I01
sbag0
(g319
g2
Ntp2962
Rp2963
(dp2964
g38
(I21
I8
tp2965
sg324
I00
sg325
I00
sg326
g61
sg327
I01
sbag0
(g319
g2
Ntp2966
Rp2967
(dp2968
g38
(I21
I9
tp2969
sg324
I00
sg325
I00
sg326
Nsg327
I01
sbag0
(g319
g2
Ntp2970
Rp2971
(dp2972
g38
(I21
I10
tp2973
sg324
I00
sg325
I00
sg326
Nsg327
I00
sbag0
(g319
g2
Ntp2974
Rp2975
(dp2976
g38
(I21
I11
tp2977
sg324
I00
sg325
I00
sg326
Nsg327
I00
sbag0
(g319
g2
Ntp2978
Rp2979
(dp2980
g38
(I21
I12
tp2981
sg324
I00
sg325
I00
sg326
g101
sg327
I01
sbag0
(g319
g2
Ntp2982
Rp2983
(dp2984
g38
(I21
I13
tp2985
sg324
I00
sg325
I00
sg326
Nsg327
I00
sbag0
(g319
g2
Ntp2986
Rp2987
(dp2988
g38
(I21
I14
tp2989
sg324
I00
sg325
I00
sg326
Nsg327
I00
sbag0
(g319
g2
Ntp2990
Rp2991
(dp2992
g38
(I21
I15
tp2993
sg324
I00
sg325
I00
sg326
Nsg327
I00
sbag0
(g319
g2
Ntp2994
Rp2995
(dp2996
g38
(I21
I16
tp2997
sg324
I00
sg325
I00
sg326
Nsg327
I00
sbag0
(g319
g2
Ntp2998
Rp2999
(dp3000
g38
(I21
I17
tp3001
sg324
I00
sg325
I00
sg326
Nsg327
I00
sbag0
(g319
g2
Ntp3002
Rp3003
(dp3004
g38
(I21
I18
tp3005
sg324
I00
sg325
I00
sg326
Nsg327
I00
sbag0
(g319
g2
Ntp3006
Rp3007
(dp3008
g38
(I21
I19
tp3009
sg324
I00
sg325
I00
sg326
Nsg327
I00
sbag0
(g319
g2
Ntp3010
Rp3011
(dp3012
g38
(I21
I20
tp3013
sg324
I00
sg325
I00
sg326
Nsg327
I00
sbag0
(g319
g2
Ntp3014
Rp3015
(dp3016
g38
(I21
I21
tp3017
sg324
I00
sg325
I01
sg326
Nsg327
I01
sbag0
(g319
g2
Ntp3018
Rp3019
(dp3020
g38
(I21
I22
tp3021
sg324
I00
sg325
I01
sg326
Nsg327
I01
sbag0
(g319
g2
Ntp3022
Rp3023
(dp3024
g38
(I21
I23
tp3025
sg324
I00
sg325
I01
sg326
Nsg327
I01
sbag0
(g319
g2
Ntp3026
Rp3027
(dp3028
g38
(I21
I24
tp3029
sg324
I00
sg325
I01
sg326
Nsg327
I01
sbag0
(g319
g2
Ntp3030
Rp3031
(dp3032
g38
(I21
I25
tp3033
sg324
I00
sg325
I01
sg326
Nsg327
I01
sbag0
(g319
g2
Ntp3034
Rp3035
(dp3036
g38
(I21
I26
tp3037
sg324
I00
sg325
I00
sg326
Nsg327
I00
sbag0
(g319
g2
Ntp3038
Rp3039
(dp3040
g38
(I21
I27
tp3041
sg324
I00
sg325
I00
sg326
Nsg327
I00
sbag0
(g319
g2
Ntp3042
Rp3043
(dp3044
g38
(I21
I28
tp3045
sg324
I00
sg325
I00
sg326
Nsg327
I00
sbag0
(g319
g2
Ntp3046
Rp3047
(dp3048
g38
(I21
I29
tp3049
sg324
I00
sg325
I00
sg326
Nsg327
I00
sbaa(lp3050
g0
(g319
g2
Ntp3051
Rp3052
(dp3053
g38
(I22
I0
tp3054
sg324
I00
sg325
I00
sg326
Nsg327
I00
sbag0
(g319
g2
Ntp3055
Rp3056
(dp3057
g38
(I22
I1
tp3058
sg324
I00
sg325
I00
sg326
Nsg327
I00
sbag0
(g319
g2
Ntp3059
Rp3060
(dp3061
g38
(I22
I2
tp3062
sg324
I00
sg325
I00
sg326
Nsg327
I00
sbag0
(g319
g2
Ntp3063
Rp3064
(dp3065
g38
(I22
I3
tp3066
sg324
I00
sg325
I00
sg326
Nsg327
I00
sbag0
(g319
g2
Ntp3067
Rp3068
(dp3069
g38
(I22
I4
tp3070
sg324
I00
sg325
I00
sg326
Nsg327
I00
sbag0
(g319
g2
Ntp3071
Rp3072
(dp3073
g38
(I22
I5
tp3074
sg324
I00
sg325
I00
sg326
Nsg327
I01
sbag0
(g319
g2
Ntp3075
Rp3076
(dp3077
g38
(I22
I6
tp3078
sg324
I00
sg325
I00
sg326
g80
sg327
I01
sbag0
(g319
g2
Ntp3079
Rp3080
(dp3081
g38
(I22
I7
tp3082
sg324
I00
sg325
I00
sg326
Nsg327
I01
sbag0
(g319
g2
Ntp3083
Rp3084
(dp3085
g38
(I22
I8
tp3086
sg324
I00
sg325
I00
sg326
g61
sg327
I01
sbag0
(g319
g2
Ntp3087
Rp3088
(dp3089
g38
(I22
I9
tp3090
sg324
I00
sg325
I00
sg326
Nsg327
I01
sbag0
(g319
g2
Ntp3091
Rp3092
(dp3093
g38
(I22
I10
tp3094
sg324
I00
sg325
I00
sg326
Nsg327
I00
sbag0
(g319
g2
Ntp3095
Rp3096
(dp3097
g38
(I22
I11
tp3098
sg324
I00
sg325
I00
sg326
Nsg327
I00
sbag0
(g319
g2
Ntp3099
Rp3100
(dp3101
g38
(I22
I12
tp3102
sg324
I00
sg325
I00
sg326
Nsg327
I00
sbag0
(g319
g2
Ntp3103
Rp3104
(dp3105
g38
(I22
I13
tp3106
sg324
I00
sg325
I00
sg326
Nsg327
I00
sbag0
(g319
g2
Ntp3107
Rp3108
(dp3109
g38
(I22
I14
tp3110
sg324
I00
sg325
I00
sg326
Nsg327
I00
sbag0
(g319
g2
Ntp3111
Rp3112
(dp3113
g38
(I22
I15
tp3114
sg324
I00
sg325
I00
sg326
Nsg327
I00
sbag0
(g319
g2
Ntp3115
Rp3116
(dp3117
g38
(I22
I16
tp3118
sg324
I00
sg325
I00
sg326
Nsg327
I00
sbag0
(g319
g2
Ntp3119
Rp3120
(dp3121
g38
(I22
I17
tp3122
sg324
I00
sg325
I00
sg326
Nsg327
I00
sbag0
(g319
g2
Ntp3123
Rp3124
(dp3125
g38
(I22
I18
tp3126
sg324
I00
sg325
I00
sg326
Nsg327
I00
sbag0
(g319
g2
Ntp3127
Rp3128
(dp3129
g38
(I22
I19
tp3130
sg324
I00
sg325
I00
sg326
Nsg327
I00
sbag0
(g319
g2
Ntp3131
Rp3132
(dp3133
g38
(I22
I20
tp3134
sg324
I00
sg325
I00
sg326
Nsg327
I00
sbag0
(g319
g2
Ntp3135
Rp3136
(dp3137
g38
(I22
I21
tp3138
sg324
I00
sg325
I01
sg326
Nsg327
I01
sbag0
(g319
g2
Ntp3139
Rp3140
(dp3141
g38
(I22
I22
tp3142
sg324
I00
sg325
I01
sg326
Nsg327
I01
sbag0
(g319
g2
Ntp3143
Rp3144
(dp3145
g38
(I22
I23
tp3146
sg324
I00
sg325
I01
sg326
g144
sg327
I01
sbag0
(g319
g2
Ntp3147
Rp3148
(dp3149
g38
(I22
I24
tp3150
sg324
I00
sg325
I01
sg326
Nsg327
I01
sbag0
(g319
g2
Ntp3151
Rp3152
(dp3153
g38
(I22
I25
tp3154
sg324
I00
sg325
I01
sg326
Nsg327
I01
sbag0
(g319
g2
Ntp3155
Rp3156
(dp3157
g38
(I22
I26
tp3158
sg324
I00
sg325
I00
sg326
Nsg327
I00
sbag0
(g319
g2
Ntp3159
Rp3160
(dp3161
g38
(I22
I27
tp3162
sg324
I00
sg325
I00
sg326
Nsg327
I00
sbag0
(g319
g2
Ntp3163
Rp3164
(dp3165
g38
(I22
I28
tp3166
sg324
I00
sg325
I00
sg326
Nsg327
I00
sbag0
(g319
g2
Ntp3167
Rp3168
(dp3169
g38
(I22
I29
tp3170
sg324
I00
sg325
I00
sg326
Nsg327
I00
sbaa(lp3171
g0
(g319
g2
Ntp3172
Rp3173
(dp3174
g38
(I23
I0
tp3175
sg324
I00
sg325
I00
sg326
Nsg327
I00
sbag0
(g319
g2
Ntp3176
Rp3177
(dp3178
g38
(I23
I1
tp3179
sg324
I00
sg325
I00
sg326
Nsg327
I00
sbag0
(g319
g2
Ntp3180
Rp3181
(dp3182
g38
(I23
I2
tp3183
sg324
I00
sg325
I00
sg326
Nsg327
I00
sbag0
(g319
g2
Ntp3184
Rp3185
(dp3186
g38
(I23
I3
tp3187
sg324
I00
sg325
I00
sg326
Nsg327
I00
sbag0
(g319
g2
Ntp3188
Rp3189
(dp3190
g38
(I23
I4
tp3191
sg324
I00
sg325
I00
sg326
Nsg327
I00
sbag0
(g319
g2
Ntp3192
Rp3193
(dp3194
g38
(I23
I5
tp3195
sg324
I00
sg325
I00
sg326
Nsg327
I00
sbag0
(g319
g2
Ntp3196
Rp3197
(dp3198
g38
(I23
I6
tp3199
sg324
I00
sg325
I00
sg326
g80
sg327
I01
sbag0
(g319
g2
Ntp3200
Rp3201
(dp3202
g38
(I23
I7
tp3203
sg324
I00
sg325
I00
sg326
Nsg327
I01
sbag0
(g319
g2
Ntp3204
Rp3205
(dp3206
g38
(I23
I8
tp3207
sg324
I00
sg325
I00
sg326
g61
sg327
I01
sbag0
(g319
g2
Ntp3208
Rp3209
(dp3210
g38
(I23
I9
tp3211
sg324
I00
sg325
I00
sg326
Nsg327
I01
sbag0
(g319
g2
Ntp3212
Rp3213
(dp3214
g38
(I23
I10
tp3215
sg324
I00
sg325
I00
sg326
Nsg327
I00
sbag0
(g319
g2
Ntp3216
Rp3217
(dp3218
g38
(I23
I11
tp3219
sg324
I00
sg325
I00
sg326
Nsg327
I00
sbag0
(g319
g2
Ntp3220
Rp3221
(dp3222
g38
(I23
I12
tp3223
sg324
I00
sg325
I00
sg326
Nsg327
I00
sbag0
(g319
g2
Ntp3224
Rp3225
(dp3226
g38
(I23
I13
tp3227
sg324
I00
sg325
I00
sg326
Nsg327
I00
sbag0
(g319
g2
Ntp3228
Rp3229
(dp3230
g38
(I23
I14
tp3231
sg324
I00
sg325
I00
sg326
Nsg327
I00
sbag0
(g319
g2
Ntp3232
Rp3233
(dp3234
g38
(I23
I15
tp3235
sg324
I00
sg325
I00
sg326
Nsg327
I00
sbag0
(g319
g2
Ntp3236
Rp3237
(dp3238
g38
(I23
I16
tp3239
sg324
I00
sg325
I00
sg326
Nsg327
I00
sbag0
(g319
g2
Ntp3240
Rp3241
(dp3242
g38
(I23
I17
tp3243
sg324
I00
sg325
I00
sg326
Nsg327
I00
sbag0
(g319
g2
Ntp3244
Rp3245
(dp3246
g38
(I23
I18
tp3247
sg324
I00
sg325
I00
sg326
Nsg327
I00
sbag0
(g319
g2
Ntp3248
Rp3249
(dp3250
g38
(I23
I19
tp3251
sg324
I00
sg325
I00
sg326
Nsg327
I00
sbag0
(g319
g2
Ntp3252
Rp3253
(dp3254
g38
(I23
I20
tp3255
sg324
I00
sg325
I00
sg326
Nsg327
I00
sbag0
(g319
g2
Ntp3256
Rp3257
(dp3258
g38
(I23
I21
tp3259
sg324
I00
sg325
I01
sg326
Nsg327
I01
sbag0
(g319
g2
Ntp3260
Rp3261
(dp3262
g38
(I23
I22
tp3263
sg324
I00
sg325
I01
sg326
Nsg327
I01
sbag0
(g319
g2
Ntp3264
Rp3265
(dp3266
g38
(I23
I23
tp3267
sg324
I00
sg325
I01
sg326
g144
sg327
I01
sbag0
(g319
g2
Ntp3268
Rp3269
(dp3270
g38
(I23
I24
tp3271
sg324
I00
sg325
I01
sg326
Nsg327
I01
sbag0
(g319
g2
Ntp3272
Rp3273
(dp3274
g38
(I23
I25
tp3275
sg324
I00
sg325
I01
sg326
Nsg327
I01
sbag0
(g319
g2
Ntp3276
Rp3277
(dp3278
g38
(I23
I26
tp3279
sg324
I00
sg325
I00
sg326
Nsg327
I00
sbag0
(g319
g2
Ntp3280
Rp3281
(dp3282
g38
(I23
I27
tp3283
sg324
I00
sg325
I00
sg326
Nsg327
I00
sbag0
(g319
g2
Ntp3284
Rp3285
(dp3286
g38
(I23
I28
tp3287
sg324
I00
sg325
I00
sg326
Nsg327
I00
sbag0
(g319
g2
Ntp3288
Rp3289
(dp3290
g38
(I23
I29
tp3291
sg324
I00
sg325
I00
sg326
Nsg327
I00
sbaa(lp3292
g0
(g319
g2
Ntp3293
Rp3294
(dp3295
g38
(I24
I0
tp3296
sg324
I00
sg325
I00
sg326
Nsg327
I00
sbag0
(g319
g2
Ntp3297
Rp3298
(dp3299
g38
(I24
I1
tp3300
sg324
I00
sg325
I00
sg326
Nsg327
I00
sbag0
(g319
g2
Ntp3301
Rp3302
(dp3303
g38
(I24
I2
tp3304
sg324
I00
sg325
I00
sg326
Nsg327
I00
sbag0
(g319
g2
Ntp3305
Rp3306
(dp3307
g38
(I24
I3
tp3308
sg324
I00
sg325
I00
sg326
Nsg327
I00
sbag0
(g319
g2
Ntp3309
Rp3310
(dp3311
g38
(I24
I4
tp3312
sg324
I00
sg325
I00
sg326
Nsg327
I00
sbag0
(g319
g2
Ntp3313
Rp3314
(dp3315
g38
(I24
I5
tp3316
sg324
I00
sg325
I00
sg326
Nsg327
I00
sbag0
(g319
g2
Ntp3317
Rp3318
(dp3319
g38
(I24
I6
tp3320
sg324
I00
sg325
I00
sg326
Nsg327
I00
sbag0
(g319
g2
Ntp3321
Rp3322
(dp3323
g38
(I24
I7
tp3324
sg324
I00
sg325
I00
sg326
Nsg327
I00
sbag0
(g319
g2
Ntp3325
Rp3326
(dp3327
g38
(I24
I8
tp3328
sg324
I00
sg325
I00
sg326
g61
sg327
I01
sbag0
(g319
g2
Ntp3329
Rp3330
(dp3331
g38
(I24
I9
tp3332
sg324
I00
sg325
I00
sg326
Nsg327
I00
sbag0
(g319
g2
Ntp3333
Rp3334
(dp3335
g38
(I24
I10
tp3336
sg324
I00
sg325
I00
sg326
Nsg327
I00
sbag0
(g319
g2
Ntp3337
Rp3338
(dp3339
g38
(I24
I11
tp3340
sg324
I00
sg325
I00
sg326
Nsg327
I00
sbag0
(g319
g2
Ntp3341
Rp3342
(dp3343
g38
(I24
I12
tp3344
sg324
I00
sg325
I00
sg326
Nsg327
I00
sbag0
(g319
g2
Ntp3345
Rp3346
(dp3347
g38
(I24
I13
tp3348
sg324
I00
sg325
I00
sg326
Nsg327
I00
sbag0
(g319
g2
Ntp3349
Rp3350
(dp3351
g38
(I24
I14
tp3352
sg324
I00
sg325
I00
sg326
Nsg327
I00
sbag0
(g319
g2
Ntp3353
Rp3354
(dp3355
g38
(I24
I15
tp3356
sg324
I00
sg325
I00
sg326
Nsg327
I00
sbag0
(g319
g2
Ntp3357
Rp3358
(dp3359
g38
(I24
I16
tp3360
sg324
I00
sg325
I00
sg326
Nsg327
I00
sbag0
(g319
g2
Ntp3361
Rp3362
(dp3363
g38
(I24
I17
tp3364
sg324
I00
sg325
I00
sg326
Nsg327
I00
sbag0
(g319
g2
Ntp3365
Rp3366
(dp3367
g38
(I24
I18
tp3368
sg324
I00
sg325
I00
sg326
Nsg327
I00
sbag0
(g319
g2
Ntp3369
Rp3370
(dp3371
g38
(I24
I19
tp3372
sg324
I00
sg325
I00
sg326
Nsg327
I00
sbag0
(g319
g2
Ntp3373
Rp3374
(dp3375
g38
(I24
I20
tp3376
sg324
I00
sg325
I00
sg326
Nsg327
I00
sbag0
(g319
g2
Ntp3377
Rp3378
(dp3379
g38
(I24
I21
tp3380
sg324
I00
sg325
I01
sg326
Nsg327
I01
sbag0
(g319
g2
Ntp3381
Rp3382
(dp3383
g38
(I24
I22
tp3384
sg324
I00
sg325
I01
sg326
Nsg327
I01
sbag0
(g319
g2
Ntp3385
Rp3386
(dp3387
g38
(I24
I23
tp3388
sg324
I00
sg325
I01
sg326
Nsg327
I01
sbag0
(g319
g2
Ntp3389
Rp3390
(dp3391
g38
(I24
I24
tp3392
sg324
I00
sg325
I01
sg326
Nsg327
I01
sbag0
(g319
g2
Ntp3393
Rp3394
(dp3395
g38
(I24
I25
tp3396
sg324
I00
sg325
I01
sg326
Nsg327
I01
sbag0
(g319
g2
Ntp3397
Rp3398
(dp3399
g38
(I24
I26
tp3400
sg324
I00
sg325
I00
sg326
Nsg327
I00
sbag0
(g319
g2
Ntp3401
Rp3402
(dp3403
g38
(I24
I27
tp3404
sg324
I00
sg325
I00
sg326
Nsg327
I00
sbag0
(g319
g2
Ntp3405
Rp3406
(dp3407
g38
(I24
I28
tp3408
sg324
I00
sg325
I00
sg326
Nsg327
I00
sbag0
(g319
g2
Ntp3409
Rp3410
(dp3411
g38
(I24
I29
tp3412
sg324
I00
sg325
I00
sg326
Nsg327
I00
sbaa(lp3413
g0
(g319
g2
Ntp3414
Rp3415
(dp3416
g38
(I25
I0
tp3417
sg324
I00
sg325
I00
sg326
Nsg327
I00
sbag0
(g319
g2
Ntp3418
Rp3419
(dp3420
g38
(I25
I1
tp3421
sg324
I00
sg325
I00
sg326
Nsg327
I00
sbag0
(g319
g2
Ntp3422
Rp3423
(dp3424
g38
(I25
I2
tp3425
sg324
I00
sg325
I00
sg326
Nsg327
I00
sbag0
(g319
g2
Ntp3426
Rp3427
(dp3428
g38
(I25
I3
tp3429
sg324
I00
sg325
I00
sg326
Nsg327
I00
sbag0
(g319
g2
Ntp3430
Rp3431
(dp3432
g38
(I25
I4
tp3433
sg324
I00
sg325
I00
sg326
Nsg327
I00
sbag0
(g319
g2
Ntp3434
Rp3435
(dp3436
g38
(I25
I5
tp3437
sg324
I00
sg325
I00
sg326
Nsg327
I00
sbag0
(g319
g2
Ntp3438
Rp3439
(dp3440
g38
(I25
I6
tp3441
sg324
I00
sg325
I00
sg326
Nsg327
I00
sbag0
(g319
g2
Ntp3442
Rp3443
(dp3444
g38
(I25
I7
tp3445
sg324
I00
sg325
I00
sg326
Nsg327
I00
sbag0
(g319
g2
Ntp3446
Rp3447
(dp3448
g38
(I25
I8
tp3449
sg324
I00
sg325
I00
sg326
Nsg327
I00
sbag0
(g319
g2
Ntp3450
Rp3451
(dp3452
g38
(I25
I9
tp3453
sg324
I00
sg325
I00
sg326
Nsg327
I00
sbag0
(g319
g2
Ntp3454
Rp3455
(dp3456
g38
(I25
I10
tp3457
sg324
I00
sg325
I00
sg326
Nsg327
I00
sbag0
(g319
g2
Ntp3458
Rp3459
(dp3460
g38
(I25
I11
tp3461
sg324
I00
sg325
I00
sg326
Nsg327
I00
sbag0
(g319
g2
Ntp3462
Rp3463
(dp3464
g38
(I25
I12
tp3465
sg324
I00
sg325
I00
sg326
Nsg327
I00
sbag0
(g319
g2
Ntp3466
Rp3467
(dp3468
g38
(I25
I13
tp3469
sg324
I00
sg325
I00
sg326
Nsg327
I00
sbag0
(g319
g2
Ntp3470
Rp3471
(dp3472
g38
(I25
I14
tp3473
sg324
I00
sg325
I00
sg326
Nsg327
I00
sbag0
(g319
g2
Ntp3474
Rp3475
(dp3476
g38
(I25
I15
tp3477
sg324
I00
sg325
I00
sg326
Nsg327
I00
sbag0
(g319
g2
Ntp3478
Rp3479
(dp3480
g38
(I25
I16
tp3481
sg324
I00
sg325
I00
sg326
Nsg327
I00
sbag0
(g319
g2
Ntp3482
Rp3483
(dp3484
g38
(I25
I17
tp3485
sg324
I00
sg325
I01
sg326
Nsg327
I01
sbag0
(g319
g2
Ntp3486
Rp3487
(dp3488
g38
(I25
I18
tp3489
sg324
I00
sg325
I01
sg326
Nsg327
I01
sbag0
(g319
g2
Ntp3490
Rp3491
(dp3492
g38
(I25
I19
tp3493
sg324
I00
sg325
I01
sg326
Nsg327
I01
sbag0
(g319
g2
Ntp3494
Rp3495
(dp3496
g38
(I25
I20
tp3497
sg324
I00
sg325
I01
sg326
Nsg327
I01
sbag0
(g319
g2
Ntp3498
Rp3499
(dp3500
g38
(I25
I21
tp3501
sg324
I00
sg325
I01
sg326
Nsg327
I01
sbag0
(g319
g2
Ntp3502
Rp3503
(dp3504
g38
(I25
I22
tp3505
sg324
I00
sg325
I01
sg326
Nsg327
I01
sbag0
(g319
g2
Ntp3506
Rp3507
(dp3508
g38
(I25
I23
tp3509
sg324
I00
sg325
I01
sg326
Nsg327
I01
sbag0
(g319
g2
Ntp3510
Rp3511
(dp3512
g38
(I25
I24
tp3513
sg324
I00
sg325
I01
sg326
Nsg327
I01
sbag0
(g319
g2
Ntp3514
Rp3515
(dp3516
g38
(I25
I25
tp3517
sg324
I00
sg325
I01
sg326
Nsg327
I01
sbag0
(g319
g2
Ntp3518
Rp3519
(dp3520
g38
(I25
I26
tp3521
sg324
I00
sg325
I00
sg326
Nsg327
I00
sbag0
(g319
g2
Ntp3522
Rp3523
(dp3524
g38
(I25
I27
tp3525
sg324
I00
sg325
I00
sg326
Nsg327
I00
sbag0
(g319
g2
Ntp3526
Rp3527
(dp3528
g38
(I25
I28
tp3529
sg324
I00
sg325
I00
sg326
Nsg327
I00
sbag0
(g319
g2
Ntp3530
Rp3531
(dp3532
g38
(I25
I29
tp3533
sg324
I00
sg325
I00
sg326
Nsg327
I00
sbaa(lp3534
g0
(g319
g2
Ntp3535
Rp3536
(dp3537
g38
(I26
I0
tp3538
sg324
I00
sg325
I00
sg326
Nsg327
I00
sbag0
(g319
g2
Ntp3539
Rp3540
(dp3541
g38
(I26
I1
tp3542
sg324
I00
sg325
I00
sg326
Nsg327
I00
sbag0
(g319
g2
Ntp3543
Rp3544
(dp3545
g38
(I26
I2
tp3546
sg324
I00
sg325
I00
sg326
Nsg327
I00
sbag0
(g319
g2
Ntp3547
Rp3548
(dp3549
g38
(I26
I3
tp3550
sg324
I00
sg325
I00
sg326
Nsg327
I00
sbag0
(g319
g2
Ntp3551
Rp3552
(dp3553
g38
(I26
I4
tp3554
sg324
I00
sg325
I00
sg326
Nsg327
I00
sbag0
(g319
g2
Ntp3555
Rp3556
(dp3557
g38
(I26
I5
tp3558
sg324
I00
sg325
I00
sg326
Nsg327
I00
sbag0
(g319
g2
Ntp3559
Rp3560
(dp3561
g38
(I26
I6
tp3562
sg324
I00
sg325
I00
sg326
Nsg327
I00
sbag0
(g319
g2
Ntp3563
Rp3564
(dp3565
g38
(I26
I7
tp3566
sg324
I00
sg325
I00
sg326
Nsg327
I00
sbag0
(g319
g2
Ntp3567
Rp3568
(dp3569
g38
(I26
I8
tp3570
sg324
I00
sg325
I00
sg326
Nsg327
I00
sbag0
(g319
g2
Ntp3571
Rp3572
(dp3573
g38
(I26
I9
tp3574
sg324
I00
sg325
I00
sg326
Nsg327
I00
sbag0
(g319
g2
Ntp3575
Rp3576
(dp3577
g38
(I26
I10
tp3578
sg324
I00
sg325
I00
sg326
Nsg327
I00
sbag0
(g319
g2
Ntp3579
Rp3580
(dp3581
g38
(I26
I11
tp3582
sg324
I00
sg325
I00
sg326
Nsg327
I00
sbag0
(g319
g2
Ntp3583
Rp3584
(dp3585
g38
(I26
I12
tp3586
sg324
I00
sg325
I00
sg326
Nsg327
I00
sbag0
(g319
g2
Ntp3587
Rp3588
(dp3589
g38
(I26
I13
tp3590
sg324
I00
sg325
I00
sg326
Nsg327
I00
sbag0
(g319
g2
Ntp3591
Rp3592
(dp3593
g38
(I26
I14
tp3594
sg324
I00
sg325
I00
sg326
Nsg327
I00
sbag0
(g319
g2
Ntp3595
Rp3596
(dp3597
g38
(I26
I15
tp3598
sg324
I00
sg325
I00
sg326
Nsg327
I00
sbag0
(g319
g2
Ntp3599
Rp3600
(dp3601
g38
(I26
I16
tp3602
sg324
I00
sg325
I00
sg326
Nsg327
I00
sbag0
(g319
g2
Ntp3603
Rp3604
(dp3605
g38
(I26
I17
tp3606
sg324
I00
sg325
I01
sg326
Nsg327
I01
sbag0
(g319
g2
Ntp3607
Rp3608
(dp3609
g38
(I26
I18
tp3610
sg324
I00
sg325
I01
sg326
Nsg327
I01
sbag0
(g319
g2
Ntp3611
Rp3612
(dp3613
g38
(I26
I19
tp3614
sg324
I00
sg325
I01
sg326
Nsg327
I01
sbag0
(g319
g2
Ntp3615
Rp3616
(dp3617
g38
(I26
I20
tp3618
sg324
I00
sg325
I01
sg326
Nsg327
I01
sbag0
(g319
g2
Ntp3619
Rp3620
(dp3621
g38
(I26
I21
tp3622
sg324
I00
sg325
I01
sg326
Nsg327
I01
sbag0
(g319
g2
Ntp3623
Rp3624
(dp3625
g38
(I26
I22
tp3626
sg324
I00
sg325
I00
sg326
Nsg327
I00
sbag0
(g319
g2
Ntp3627
Rp3628
(dp3629
g38
(I26
I23
tp3630
sg324
I00
sg325
I00
sg326
Nsg327
I00
sbag0
(g319
g2
Ntp3631
Rp3632
(dp3633
g38
(I26
I24
tp3634
sg324
I00
sg325
I00
sg326
Nsg327
I00
sbag0
(g319
g2
Ntp3635
Rp3636
(dp3637
g38
(I26
I25
tp3638
sg324
I00
sg325
I00
sg326
Nsg327
I00
sbag0
(g319
g2
Ntp3639
Rp3640
(dp3641
g38
(I26
I26
tp3642
sg324
I00
sg325
I00
sg326
Nsg327
I00
sbag0
(g319
g2
Ntp3643
Rp3644
(dp3645
g38
(I26
I27
tp3646
sg324
I00
sg325
I00
sg326
Nsg327
I00
sbag0
(g319
g2
Ntp3647
Rp3648
(dp3649
g38
(I26
I28
tp3650
sg324
I00
sg325
I00
sg326
Nsg327
I00
sbag0
(g319
g2
Ntp3651
Rp3652
(dp3653
g38
(I26
I29
tp3654
sg324
I00
sg325
I00
sg326
Nsg327
I00
sbaa(lp3655
g0
(g319
g2
Ntp3656
Rp3657
(dp3658
g38
(I27
I0
tp3659
sg324
I00
sg325
I00
sg326
Nsg327
I00
sbag0
(g319
g2
Ntp3660
Rp3661
(dp3662
g38
(I27
I1
tp3663
sg324
I00
sg325
I00
sg326
Nsg327
I00
sbag0
(g319
g2
Ntp3664
Rp3665
(dp3666
g38
(I27
I2
tp3667
sg324
I00
sg325
I00
sg326
Nsg327
I00
sbag0
(g319
g2
Ntp3668
Rp3669
(dp3670
g38
(I27
I3
tp3671
sg324
I00
sg325
I00
sg326
Nsg327
I00
sbag0
(g319
g2
Ntp3672
Rp3673
(dp3674
g38
(I27
I4
tp3675
sg324
I00
sg325
I00
sg326
Nsg327
I00
sbag0
(g319
g2
Ntp3676
Rp3677
(dp3678
g38
(I27
I5
tp3679
sg324
I00
sg325
I00
sg326
Nsg327
I00
sbag0
(g319
g2
Ntp3680
Rp3681
(dp3682
g38
(I27
I6
tp3683
sg324
I00
sg325
I00
sg326
Nsg327
I00
sbag0
(g319
g2
Ntp3684
Rp3685
(dp3686
g38
(I27
I7
tp3687
sg324
I00
sg325
I00
sg326
Nsg327
I00
sbag0
(g319
g2
Ntp3688
Rp3689
(dp3690
g38
(I27
I8
tp3691
sg324
I00
sg325
I00
sg326
Nsg327
I00
sbag0
(g319
g2
Ntp3692
Rp3693
(dp3694
g38
(I27
I9
tp3695
sg324
I00
sg325
I00
sg326
Nsg327
I00
sbag0
(g319
g2
Ntp3696
Rp3697
(dp3698
g38
(I27
I10
tp3699
sg324
I00
sg325
I00
sg326
Nsg327
I00
sbag0
(g319
g2
Ntp3700
Rp3701
(dp3702
g38
(I27
I11
tp3703
sg324
I00
sg325
I00
sg326
Nsg327
I00
sbag0
(g319
g2
Ntp3704
Rp3705
(dp3706
g38
(I27
I12
tp3707
sg324
I00
sg325
I00
sg326
Nsg327
I00
sbag0
(g319
g2
Ntp3708
Rp3709
(dp3710
g38
(I27
I13
tp3711
sg324
I00
sg325
I00
sg326
Nsg327
I00
sbag0
(g319
g2
Ntp3712
Rp3713
(dp3714
g38
(I27
I14
tp3715
sg324
I00
sg325
I00
sg326
Nsg327
I00
sbag0
(g319
g2
Ntp3716
Rp3717
(dp3718
g38
(I27
I15
tp3719
sg324
I00
sg325
I00
sg326
Nsg327
I00
sbag0
(g319
g2
Ntp3720
Rp3721
(dp3722
g38
(I27
I16
tp3723
sg324
I00
sg325
I00
sg326
Nsg327
I00
sbag0
(g319
g2
Ntp3724
Rp3725
(dp3726
g38
(I27
I17
tp3727
sg324
I00
sg325
I01
sg326
Nsg327
I01
sbag0
(g319
g2
Ntp3728
Rp3729
(dp3730
g38
(I27
I18
tp3731
sg324
I00
sg325
I01
sg326
Nsg327
I01
sbag0
(g319
g2
Ntp3732
Rp3733
(dp3734
g38
(I27
I19
tp3735
sg324
I00
sg325
I01
sg326
g158
sg327
I01
sbag0
(g319
g2
Ntp3736
Rp3737
(dp3738
g38
(I27
I20
tp3739
sg324
I00
sg325
I01
sg326
Nsg327
I01
sbag0
(g319
g2
Ntp3740
Rp3741
(dp3742
g38
(I27
I21
tp3743
sg324
I00
sg325
I01
sg326
Nsg327
I01
sbag0
(g319
g2
Ntp3744
Rp3745
(dp3746
g38
(I27
I22
tp3747
sg324
I00
sg325
I00
sg326
Nsg327
I00
sbag0
(g319
g2
Ntp3748
Rp3749
(dp3750
g38
(I27
I23
tp3751
sg324
I00
sg325
I00
sg326
Nsg327
I00
sbag0
(g319
g2
Ntp3752
Rp3753
(dp3754
g38
(I27
I24
tp3755
sg324
I00
sg325
I00
sg326
Nsg327
I00
sbag0
(g319
g2
Ntp3756
Rp3757
(dp3758
g38
(I27
I25
tp3759
sg324
I00
sg325
I00
sg326
Nsg327
I00
sbag0
(g319
g2
Ntp3760
Rp3761
(dp3762
g38
(I27
I26
tp3763
sg324
I00
sg325
I00
sg326
Nsg327
I00
sbag0
(g319
g2
Ntp3764
Rp3765
(dp3766
g38
(I27
I27
tp3767
sg324
I00
sg325
I00
sg326
Nsg327
I00
sbag0
(g319
g2
Ntp3768
Rp3769
(dp3770
g38
(I27
I28
tp3771
sg324
I00
sg325
I00
sg326
Nsg327
I00
sbag0
(g319
g2
Ntp3772
Rp3773
(dp3774
g38
(I27
I29
tp3775
sg324
I00
sg325
I00
sg326
Nsg327
I00
sbaa(lp3776
g0
(g319
g2
Ntp3777
Rp3778
(dp3779
g38
(I28
I0
tp3780
sg324
I00
sg325
I00
sg326
Nsg327
I00
sbag0
(g319
g2
Ntp3781
Rp3782
(dp3783
g38
(I28
I1
tp3784
sg324
I00
sg325
I00
sg326
Nsg327
I00
sbag0
(g319
g2
Ntp3785
Rp3786
(dp3787
g38
(I28
I2
tp3788
sg324
I00
sg325
I00
sg326
Nsg327
I00
sbag0
(g319
g2
Ntp3789
Rp3790
(dp3791
g38
(I28
I3
tp3792
sg324
I00
sg325
I00
sg326
Nsg327
I00
sbag0
(g319
g2
Ntp3793
Rp3794
(dp3795
g38
(I28
I4
tp3796
sg324
I00
sg325
I00
sg326
Nsg327
I00
sbag0
(g319
g2
Ntp3797
Rp3798
(dp3799
g38
(I28
I5
tp3800
sg324
I00
sg325
I00
sg326
Nsg327
I00
sbag0
(g319
g2
Ntp3801
Rp3802
(dp3803
g38
(I28
I6
tp3804
sg324
I00
sg325
I00
sg326
Nsg327
I00
sbag0
(g319
g2
Ntp3805
Rp3806
(dp3807
g38
(I28
I7
tp3808
sg324
I00
sg325
I00
sg326
Nsg327
I00
sbag0
(g319
g2
Ntp3809
Rp3810
(dp3811
g38
(I28
I8
tp3812
sg324
I00
sg325
I00
sg326
Nsg327
I00
sbag0
(g319
g2
Ntp3813
Rp3814
(dp3815
g38
(I28
I9
tp3816
sg324
I00
sg325
I00
sg326
Nsg327
I00
sbag0
(g319
g2
Ntp3817
Rp3818
(dp3819
g38
(I28
I10
tp3820
sg324
I00
sg325
I00
sg326
Nsg327
I01
sbag0
(g319
g2
Ntp3821
Rp3822
(dp3823
g38
(I28
I11
tp3824
sg324
I00
sg325
I00
sg326
Nsg327
I01
sbag0
(g319
g2
Ntp3825
Rp3826
(dp3827
g38
(I28
I12
tp3828
sg324
I00
sg325
I00
sg326
Nsg327
I01
sbag0
(g319
g2
Ntp3829
Rp3830
(dp3831
g38
(I28
I13
tp3832
sg324
I00
sg325
I00
sg326
Nsg327
I01
sbag0
(g319
g2
Ntp3833
Rp3834
(dp3835
g38
(I28
I14
tp3836
sg324
I00
sg325
I00
sg326
Nsg327
I01
sbag0
(g319
g2
Ntp3837
Rp3838
(dp3839
g38
(I28
I15
tp3840
sg324
I00
sg325
I00
sg326
Nsg327
I01
sbag0
(g319
g2
Ntp3841
Rp3842
(dp3843
g38
(I28
I16
tp3844
sg324
I00
sg325
I00
sg326
Nsg327
I01
sbag0
(g319
g2
Ntp3845
Rp3846
(dp3847
g38
(I28
I17
tp3848
sg324
I00
sg325
I01
sg326
Nsg327
I01
sbag0
(g319
g2
Ntp3849
Rp3850
(dp3851
g38
(I28
I18
tp3852
sg324
I00
sg325
I01
sg326
Nsg327
I01
sbag0
(g319
g2
Ntp3853
Rp3854
(dp3855
g38
(I28
I19
tp3856
sg324
I00
sg325
I01
sg326
g158
sg327
I01
sbag0
(g319
g2
Ntp3857
Rp3858
(dp3859
g38
(I28
I20
tp3860
sg324
I00
sg325
I01
sg326
Nsg327
I01
sbag0
(g319
g2
Ntp3861
Rp3862
(dp3863
g38
(I28
I21
tp3864
sg324
I00
sg325
I01
sg326
Nsg327
I01
sbag0
(g319
g2
Ntp3865
Rp3866
(dp3867
g38
(I28
I22
tp3868
sg324
I00
sg325
I00
sg326
Nsg327
I00
sbag0
(g319
g2
Ntp3869
Rp3870
(dp3871
g38
(I28
I23
tp3872
sg324
I00
sg325
I00
sg326
Nsg327
I00
sbag0
(g319
g2
Ntp3873
Rp3874
(dp3875
g38
(I28
I24
tp3876
sg324
I00
sg325
I00
sg326
Nsg327
I00
sbag0
(g319
g2
Ntp3877
Rp3878
(dp3879
g38
(I28
I25
tp3880
sg324
I00
sg325
I00
sg326
Nsg327
I00
sbag0
(g319
g2
Ntp3881
Rp3882
(dp3883
g38
(I28
I26
tp3884
sg324
I00
sg325
I00
sg326
Nsg327
I00
sbag0
(g319
g2
Ntp3885
Rp3886
(dp3887
g38
(I28
I27
tp3888
sg324
I00
sg325
I00
sg326
Nsg327
I00
sbag0
(g319
g2
Ntp3889
Rp3890
(dp3891
g38
(I28
I28
tp3892
sg324
I00
sg325
I00
sg326
Nsg327
I00
sbag0
(g319
g2
Ntp3893
Rp3894
(dp3895
g38
(I28
I29
tp3896
sg324
I00
sg325
I00
sg326
Nsg327
I00
sbaa(lp3897
g0
(g319
g2
Ntp3898
Rp3899
(dp3900
g38
(I29
I0
tp3901
sg324
I00
sg325
I00
sg326
Nsg327
I00
sbag0
(g319
g2
Ntp3902
Rp3903
(dp3904
g38
(I29
I1
tp3905
sg324
I00
sg325
I00
sg326
Nsg327
I00
sbag0
(g319
g2
Ntp3906
Rp3907
(dp3908
g38
(I29
I2
tp3909
sg324
I00
sg325
I00
sg326
Nsg327
I00
sbag0
(g319
g2
Ntp3910
Rp3911
(dp3912
g38
(I29
I3
tp3913
sg324
I00
sg325
I00
sg326
Nsg327
I00
sbag0
(g319
g2
Ntp3914
Rp3915
(dp3916
g38
(I29
I4
tp3917
sg324
I00
sg325
I00
sg326
Nsg327
I00
sbag0
(g319
g2
Ntp3918
Rp3919
(dp3920
g38
(I29
I5
tp3921
sg324
I00
sg325
I00
sg326
Nsg327
I00
sbag0
(g319
g2
Ntp3922
Rp3923
(dp3924
g38
(I29
I6
tp3925
sg324
I00
sg325
I00
sg326
Nsg327
I00
sbag0
(g319
g2
Ntp3926
Rp3927
(dp3928
g38
(I29
I7
tp3929
sg324
I00
sg325
I00
sg326
Nsg327
I00
sbag0
(g319
g2
Ntp3930
Rp3931
(dp3932
g38
(I29
I8
tp3933
sg324
I00
sg325
I00
sg326
Nsg327
I00
sbag0
(g319
g2
Ntp3934
Rp3935
(dp3936
g38
(I29
I9
tp3937
sg324
I00
sg325
I00
sg326
Nsg327
I01
sbag0
(g319
g2
Ntp3938
Rp3939
(dp3940
g38
(I29
I10
tp3941
sg324
I00
sg325
I00
sg326
(iBase
Base
p3942
(dp3943
g18
g19
sg27
I00
sg35
(lp3944
I2
aI2
aI2
aI2
aI2
aI2
aI2
aI2
aI2
aI2
asg372
(lp3945
(I29
I10
tp3946
a(I29
I11
tp3947
a(I29
I12
tp3948
a(I29
I13
tp3949
a(I29
I14
tp3950
a(I29
I15
tp3951
a(I29
I16
tp3952
a(I29
I17
tp3953
a(I29
I18
tp3954
a(I29
I19
tp3955
asbsg327
I00
sbag0
(g319
g2
Ntp3956
Rp3957
(dp3958
g38
(I29
I11
tp3959
sg324
I00
sg325
I00
sg326
g3942
sg327
I00
sbag0
(g319
g2
Ntp3960
Rp3961
(dp3962
g38
(I29
I12
tp3963
sg324
I00
sg325
I00
sg326
g3942
sg327
I00
sbag0
(g319
g2
Ntp3964
Rp3965
(dp3966
g38
(I29
I13
tp3967
sg324
I00
sg325
I00
sg326
g3942
sg327
I00
sbag0
(g319
g2
Ntp3968
Rp3969
(dp3970
g38
(I29
I14
tp3971
sg324
I00
sg325
I00
sg326
g3942
sg327
I00
sbag0
(g319
g2
Ntp3972
Rp3973
(dp3974
g38
(I29
I15
tp3975
sg324
I00
sg325
I00
sg326
g3942
sg327
I00
sbag0
(g319
g2
Ntp3976
Rp3977
(dp3978
g38
(I29
I16
tp3979
sg324
I00
sg325
I00
sg326
g3942
sg327
I00
sbag0
(g319
g2
Ntp3980
Rp3981
(dp3982
g38
(I29
I17
tp3983
sg324
I00
sg325
I01
sg326
g3942
sg327
I01
sbag0
(g319
g2
Ntp3984
Rp3985
(dp3986
g38
(I29
I18
tp3987
sg324
I00
sg325
I01
sg326
g3942
sg327
I01
sbag0
(g319
g2
Ntp3988
Rp3989
(dp3990
g38
(I29
I19
tp3991
sg324
I00
sg325
I01
sg326
g3942
sg327
I01
sbag0
(g319
g2
Ntp3992
Rp3993
(dp3994
g38
(I29
I20
tp3995
sg324
I00
sg325
I01
sg326
Nsg327
I01
sbag0
(g319
g2
Ntp3996
Rp3997
(dp3998
g38
(I29
I21
tp3999
sg324
I00
sg325
I01
sg326
Nsg327
I01
sbag0
(g319
g2
Ntp4000
Rp4001
(dp4002
g38
(I29
I22
tp4003
sg324
I00
sg325
I00
sg326
Nsg327
I00
sbag0
(g319
g2
Ntp4004
Rp4005
(dp4006
g38
(I29
I23
tp4007
sg324
I00
sg325
I00
sg326
Nsg327
I00
sbag0
(g319
g2
Ntp4008
Rp4009
(dp4010
g38
(I29
I24
tp4011
sg324
I00
sg325
I00
sg326
Nsg327
I00
sbag0
(g319
g2
Ntp4012
Rp4013
(dp4014
g38
(I29
I25
tp4015
sg324
I00
sg325
I00
sg326
Nsg327
I00
sbag0
(g319
g2
Ntp4016
Rp4017
(dp4018
g38
(I29
I26
tp4019
sg324
I00
sg325
I00
sg326
Nsg327
I00
sbag0
(g319
g2
Ntp4020
Rp4021
(dp4022
g38
(I29
I27
tp4023
sg324
I00
sg325
I00
sg326
Nsg327
I00
sbag0
(g319
g2
Ntp4024
Rp4025
(dp4026
g38
(I29
I28
tp4027
sg324
I00
sg325
I00
sg326
Nsg327
I00
sbag0
(g319
g2
Ntp4028
Rp4029
(dp4030
g38
(I29
I29
tp4031
sg324
I00
sg325
I00
sg326
Nsg327
I00
sbaasbsS'player2'
p4032
g0
(cPlayerState
PlayerState
p4033
g2
Ntp4034
Rp4035
(dp4036
S'username'
p4037
S'seb; Wins; 0 ; Loses; 0'
p4038
sg18
g183
sS'shipList'
p4039
(lp4040
g207
asS'base'
p4041
g368
sS'you'
p4042
I01
sbsS'player'
p4043
I00
sS'player1'
p4044
g0
(g4033
g2
Ntp4045
Rp4046
(dp4047
g4037
S"'ge; Wins; 0 ; Loses; 0'"
p4048
sg18
g19
sg4039
(lp4049
g13
ag49
ag61
ag80
ag90
ag101
ag134
ag144
ag158
asg4041
g3942
sg4042
I00
sbsS'coral'
p4050
(lp4051
(I11
I12
tp4052
a(I12
I25
tp4053
a(I11
I21
tp4054
a(I12
I10
tp4055
a(I11
I20
tp4056
a(I13
I8
tp4057
a(I10
I18
tp4058
a(I13
I12
tp4059
a(I11
I8
tp4060
a(I13
I24
tp4061
a(I13
I14
tp4062
a(I14
I18
tp4063
a(I15
I21
tp4064
a(I19
I11
tp4065
a(I18
I5
tp4066
a(I17
I26
tp4067
a(I18
I18
tp4068
a(I18
I21
tp4069
a(I19
I21
tp4070
a(I18
I11
tp4071
a(I19
I9
tp4072
a(I16
I22
tp4073
a(I16
I26
tp4074
a(I17
I18
tp4075
asb.