ccopy_reg
_reconstructor
p0
(cGame
Game
p1
c__builtin__
object
p2
Ntp3
Rp4
(dp5
S'turnType'
p6
S''
p7
sS'turn'
p8
I00
sS'shiplist'
p9
(lp10
g0
(cShip
Cruiser
p11
g2
Ntp12
Rp13
(dp14
S'radarX'
p15
I10
sS'orientation'
p16
S'W'
p17
sS'color'
p18
(I76
I0
I153
tp19
sS'weapon'
p20
(lp21
g0
(cWeapon
HeavyCannon
p22
g2
Ntp23
Rp24
(dp25
S'selected'
p26
I00
sS'rangeY'
p27
I11
sS'rangeX'
p28
I15
sS'damage'
p29
I2
sbasg26
I00
sS'docked'
p30
I00
sS'mines'
p31
I0
sS'name'
p32
S'cruiser'
p33
sS'turnRadius'
p34
I1
sS'health'
p35
(lp36
I2
aI2
aI2
aI2
aI2
asS'armour'
p37
I2
sS'position'
p38
(lp39
(I18
I28
tp40
a(I19
I28
tp41
a(I20
I28
tp42
a(I21
I28
tp43
a(I22
I28
tp44
asS'speed'
p45
I10
sS'healthSum'
p46
I10
sS'size'
p47
I5
sbag0
(g11
g2
Ntp48
Rp49
(dp50
g15
I10
sg16
g17
sg18
g19
sg20
(lp51
g24
asg26
I00
sg30
I00
sg31
I0
sg32
g33
sg34
I1
sg35
(lp52
I2
aI2
aI2
aI2
aI2
asg37
I2
sg38
(lp53
(I24
I11
tp54
a(I25
I11
tp55
a(I26
I11
tp56
a(I27
I11
tp57
a(I28
I11
tp58
asg45
I10
sg46
I10
sg47
I5
sbag0
(cShip
Destroyer
p59
g2
Ntp60
Rp61
(dp62
g46
I4
sg15
I8
sg16
g17
sg18
g19
sg20
(lp63
g0
(cWeapon
Cannon
p64
g2
Ntp65
Rp66
(dp67
g26
I00
sg27
I9
sg28
I12
sg29
I2
sbag0
(cWeapon
Torpedo
p68
g2
Ntp69
Rp70
(dp71
g26
I00
sg27
I10
sg28
I10
sg29
I2
sbasg26
I00
sg30
I00
sg31
I0
sg32
S'destroyer'
p72
sg34
I1
sg35
(lp73
I1
aI1
aI1
aI1
asg38
(lp74
(I25
I12
tp75
a(I26
I12
tp76
a(I27
I12
tp77
a(I28
I12
tp78
asg45
I8
sg37
I1
sg47
I4
sbag0
(g59
g2
Ntp79
Rp80
(dp81
g46
I4
sg15
I8
sg16
g17
sg18
g19
sg20
(lp82
g66
ag70
asg26
I00
sg30
I00
sg31
I0
sg32
g72
sg34
I1
sg35
(lp83
I1
aI1
aI1
aI1
asg38
(lp84
(I25
I13
tp85
a(I26
I13
tp86
a(I27
I13
tp87
a(I28
I13
tp88
asg45
I8
sg37
I1
sg47
I4
sbag0
(g59
g2
Ntp89
Rp90
(dp91
g46
I4
sg15
I8
sg16
g17
sg18
g19
sg20
(lp92
g66
ag70
asg26
I00
sg30
I00
sg31
I0
sg32
g72
sg34
I1
sg35
(lp93
I1
aI1
aI1
aI1
asg38
(lp94
(I25
I14
tp95
a(I26
I14
tp96
a(I27
I14
tp97
a(I28
I14
tp98
asg45
I8
sg37
I1
sg47
I4
sbag0
(cShip
RadarBoat
p99
g2
Ntp100
Rp101
(dp102
g46
I3
sg15
I6
sS'longRadarX'
p103
I12
sg16
g17
sg18
g19
sg20
(lp104
g0
(g64
g2
Ntp105
Rp106
(dp107
g26
I00
sg27
I3
sg28
I5
sg29
I2
sbasg26
I00
sg30
I00
sg31
I0
sS'LongRadarOn'
p108
I00
sg32
S'radar'
p109
sg34
I2
sg35
(lp110
I1
aI1
aI1
asg38
(lp111
(I26
I15
tp112
a(I27
I15
tp113
a(I28
I15
tp114
asg45
I3
sg37
I1
sg47
I3
sbag0
(cShip
TorpedoBoat
p115
g2
Ntp116
Rp117
(dp118
g46
I3
sg15
I6
sg16
g17
sg18
g19
sg20
(lp119
g0
(g64
g2
Ntp120
Rp121
(dp122
g26
I00
sg27
I5
sg28
I5
sg29
I2
sbag0
(g68
g2
Ntp123
Rp124
(dp125
g26
I00
sg27
I10
sg28
I10
sg29
I2
sbasg26
I00
sg30
I00
sg31
I0
sg32
S'torpedo'
p126
sg34
I2
sg35
(lp127
I1
aI1
aI1
asg38
(lp128
(I26
I16
tp129
a(I27
I16
tp130
a(I28
I16
tp131
asg45
I9
sg37
I1
sg47
I3
sbag0
(g115
g2
Ntp132
Rp133
(dp134
g46
I3
sg15
I6
sg16
g17
sg18
g19
sg20
(lp135
g121
ag124
asg26
I00
sg30
I00
sg31
I0
sg32
g126
sg34
I2
sg35
(lp136
I1
aI1
aI1
asg38
(lp137
(I26
I17
tp138
a(I27
I17
tp139
a(I28
I17
tp140
asg45
I9
sg37
I1
sg47
I3
sbag0
(cShip
MineLayer
p141
g2
Ntp142
Rp143
(dp144
g46
I4
sg15
I6
sg16
g17
sg18
g19
sg20
(lp145
g0
(g64
g2
Ntp146
Rp147
(dp148
g26
I00
sg27
I5
sg28
I4
sg29
I2
sbasg26
I00
sg30
I00
sg31
I5
sg32
S'MineLayer'
p149
sg34
I1
sg35
(lp150
I2
aI2
asS'mineList'
p151
(lp152
sg38
(lp153
(I27
I18
tp154
a(I28
I18
tp155
asg45
I6
sg37
I2
sg47
I2
sbag0
(g141
g2
Ntp156
Rp157
(dp158
g46
I4
sg15
I6
sg16
g17
sg18
g19
sg20
(lp159
g147
asg26
I00
sg30
I00
sg31
I5
sg32
g149
sg34
I1
sg35
(lp160
I2
aI2
asg151
(lp161
sg38
(lp162
(I27
I19
tp163
a(I28
I19
tp164
asg45
I6
sg37
I2
sg47
I2
sbag0
(cShip
Kamikaze
p165
g2
Ntp166
Rp167
(dp168
g15
I5
sg16
S'E'
p169
sg18
g19
sg20
(lp170
g0
(cWeapon
Explosive
p171
g2
Ntp172
Rp173
(dp174
g26
I00
sg27
I3
sg28
I3
sg29
I2
sbasg26
I00
sg30
I00
sg31
I0
sg32
S'kamikaze'
p175
sg34
I1
sg35
(lp176
I2
asg38
(lp177
(I15
I28
tp178
asg45
I2
sg37
I2
sg47
I1
sbag0
(g11
g2
Ntp179
Rp180
(dp181
g15
I10
sg16
g169
sg18
(I255
I255
I255
tp182
sg20
(lp183
g0
(g22
g2
Ntp184
Rp185
(dp186
g26
I00
sg27
I11
sg28
I15
sg29
I2
sbasg26
I00
sg30
I00
sg31
I0
sg32
g33
sg34
I1
sg35
(lp187
I2
aI2
aI2
aI2
aI2
asg37
I2
sg38
(lp188
(I13
I27
tp189
a(I12
I27
tp190
a(I11
I27
tp191
a(I10
I27
tp192
a(I9
I27
tp193
asg45
I10
sg46
I10
sg47
I5
sbag0
(g11
g2
Ntp194
Rp195
(dp196
g15
I10
sg16
g169
sg18
g182
sg20
(lp197
g185
asg26
I00
sg30
I00
sg31
I0
sg32
g33
sg34
I1
sg35
(lp198
I2
aI2
aI2
aI2
aI2
asg37
I2
sg38
(lp199
(I5
I11
tp200
a(I4
I11
tp201
a(I3
I11
tp202
a(I2
I11
tp203
a(I1
I11
tp204
asg45
I10
sg46
I10
sg47
I5
sbag0
(g59
g2
Ntp205
Rp206
(dp207
g46
I4
sg15
I8
sg16
g169
sg18
g182
sg20
(lp208
g0
(g64
g2
Ntp209
Rp210
(dp211
g26
I00
sg27
I9
sg28
I12
sg29
I2
sbag0
(g68
g2
Ntp212
Rp213
(dp214
g26
I00
sg27
I10
sg28
I10
sg29
I2
sbasg26
I00
sg30
I00
sg31
I0
sg32
g72
sg34
I1
sg35
(lp215
I1
aI1
aI1
aI1
asg38
(lp216
(I4
I12
tp217
a(I3
I12
tp218
a(I2
I12
tp219
a(I1
I12
tp220
asg45
I8
sg37
I1
sg47
I4
sbag0
(g59
g2
Ntp221
Rp222
(dp223
g46
I4
sg15
I8
sg16
g169
sg18
g182
sg20
(lp224
g210
ag213
asg26
I00
sg30
I00
sg31
I0
sg32
g72
sg34
I1
sg35
(lp225
I1
aI1
aI1
aI1
asg38
(lp226
(I4
I13
tp227
a(I3
I13
tp228
a(I2
I13
tp229
a(I1
I13
tp230
asg45
I8
sg37
I1
sg47
I4
sbag0
(g59
g2
Ntp231
Rp232
(dp233
g46
I4
sg15
I8
sg16
g169
sg18
g182
sg20
(lp234
g210
ag213
asg26
I00
sg30
I00
sg31
I0
sg32
g72
sg34
I1
sg35
(lp235
I1
aI1
aI1
aI1
asg38
(lp236
(I4
I14
tp237
a(I3
I14
tp238
a(I2
I14
tp239
a(I1
I14
tp240
asg45
I8
sg37
I1
sg47
I4
sbag0
(g99
g2
Ntp241
Rp242
(dp243
g46
I3
sg15
I6
sg103
I12
sg16
g169
sg18
g182
sg20
(lp244
g0
(g64
g2
Ntp245
Rp246
(dp247
g26
I00
sg27
I3
sg28
I5
sg29
I2
sbasg26
I00
sg30
I00
sg31
I0
sg108
I00
sg32
g109
sg34
I2
sg35
(lp248
I1
aI1
aI1
asg38
(lp249
(I3
I15
tp250
a(I2
I15
tp251
a(I1
I15
tp252
asg45
I3
sg37
I1
sg47
I3
sbag0
(g115
g2
Ntp253
Rp254
(dp255
g46
I3
sg15
I6
sg16
g169
sg18
g182
sg20
(lp256
g0
(g64
g2
Ntp257
Rp258
(dp259
g26
I00
sg27
I5
sg28
I5
sg29
I2
sbag0
(g68
g2
Ntp260
Rp261
(dp262
g26
I00
sg27
I10
sg28
I10
sg29
I2
sbasg26
I00
sg30
I00
sg31
I0
sg32
g126
sg34
I2
sg35
(lp263
I1
aI1
aI1
asg38
(lp264
(I3
I16
tp265
a(I2
I16
tp266
a(I1
I16
tp267
asg45
I9
sg37
I1
sg47
I3
sbag0
(g115
g2
Ntp268
Rp269
(dp270
g46
I3
sg15
I6
sg16
g169
sg18
g182
sg20
(lp271
g258
ag261
asg26
I00
sg30
I00
sg31
I0
sg32
g126
sg34
I2
sg35
(lp272
I1
aI1
aI1
asg38
(lp273
(I3
I17
tp274
a(I2
I17
tp275
a(I1
I17
tp276
asg45
I9
sg37
I1
sg47
I3
sbag0
(g141
g2
Ntp277
Rp278
(dp279
g46
I4
sg15
I6
sg16
g169
sg18
g182
sg20
(lp280
g0
(g64
g2
Ntp281
Rp282
(dp283
g26
I00
sg27
I5
sg28
I4
sg29
I2
sbasg26
I00
sg30
I00
sg31
I5
sg32
g149
sg34
I1
sg35
(lp284
I2
aI2
asg151
(lp285
sg38
(lp286
(I2
I18
tp287
a(I1
I18
tp288
asg45
I6
sg37
I2
sg47
I2
sbag0
(g141
g2
Ntp289
Rp290
(dp291
g46
I4
sg15
I6
sg16
g169
sg18
g182
sg20
(lp292
g282
asg26
I00
sg30
I00
sg31
I5
sg32
g149
sg34
I1
sg35
(lp293
I2
aI2
asg151
(lp294
sg38
(lp295
(I4
I19
tp296
a(I3
I19
tp297
asg45
I6
sg37
I2
sg47
I2
sbag0
(g165
g2
Ntp298
Rp299
(dp300
g15
I5
sg16
g169
sg18
g182
sg20
(lp301
g0
(g171
g2
Ntp302
Rp303
(dp304
g26
I00
sg27
I3
sg28
I3
sg29
I2
sbasg26
I00
sg30
I00
sg31
I0
sg32
g175
sg34
I1
sg35
(lp305
I2
asg38
(lp306
(I9
I25
tp307
asg45
I2
sg37
I2
sg47
I1
sbasS'gameBoard'
p308
(iBoard
Board
p309
(dp310
S'y'
p311
I-1
sS'x'
p312
I-1
sS'tick'
p313
I0
sS'board'
p314
(lp315
(lp316
g0
(cSquare
Square
p317
g2
Ntp318
Rp319
(dp320
g38
(I0
I0
tp321
sS'sonarVisible'
p322
I00
sS'activeRange'
p323
I00
sS'objectOn'
p324
NsS'visible'
p325
I00
sbag0
(g317
g2
Ntp326
Rp327
(dp328
g38
(I0
I1
tp329
sg322
I00
sg323
I00
sg324
Nsg325
I00
sbag0
(g317
g2
Ntp330
Rp331
(dp332
g38
(I0
I2
tp333
sg322
I00
sg323
I00
sg324
Nsg325
I00
sbag0
(g317
g2
Ntp334
Rp335
(dp336
g38
(I0
I3
tp337
sg322
I00
sg323
I00
sg324
Nsg325
I00
sbag0
(g317
g2
Ntp338
Rp339
(dp340
g38
(I0
I4
tp341
sg322
I00
sg323
I00
sg324
Nsg325
I00
sbag0
(g317
g2
Ntp342
Rp343
(dp344
g38
(I0
I5
tp345
sg322
I00
sg323
I00
sg324
Nsg325
I00
sbag0
(g317
g2
Ntp346
Rp347
(dp348
g38
(I0
I6
tp349
sg322
I00
sg323
I00
sg324
Nsg325
I00
sbag0
(g317
g2
Ntp350
Rp351
(dp352
g38
(I0
I7
tp353
sg322
I00
sg323
I00
sg324
Nsg325
I00
sbag0
(g317
g2
Ntp354
Rp355
(dp356
g38
(I0
I8
tp357
sg322
I00
sg323
I00
sg324
Nsg325
I00
sbag0
(g317
g2
Ntp358
Rp359
(dp360
g38
(I0
I9
tp361
sg322
I00
sg323
I00
sg324
Nsg325
I00
sbag0
(g317
g2
Ntp362
Rp363
(dp364
g38
(I0
I10
tp365
sg322
I00
sg323
I00
sg324
(iBase
Base
p366
(dp367
g18
(I0
I170
I0
tp368
sg26
I00
sg35
(lp369
I2
aI2
aI2
aI2
aI2
aI2
aI2
aI2
aI2
aI2
asS'positionList'
p370
(lp371
(I0
I10
tp372
a(I0
I11
tp373
a(I0
I12
tp374
a(I0
I13
tp375
a(I0
I14
tp376
a(I0
I15
tp377
a(I0
I16
tp378
a(I0
I17
tp379
a(I0
I18
tp380
a(I0
I19
tp381
asbsg325
I00
sbag0
(g317
g2
Ntp382
Rp383
(dp384
g38
(I0
I11
tp385
sg322
I00
sg323
I00
sg324
g366
sg325
I00
sbag0
(g317
g2
Ntp386
Rp387
(dp388
g38
(I0
I12
tp389
sg322
I00
sg323
I00
sg324
g366
sg325
I00
sbag0
(g317
g2
Ntp390
Rp391
(dp392
g38
(I0
I13
tp393
sg322
I00
sg323
I00
sg324
g366
sg325
I00
sbag0
(g317
g2
Ntp394
Rp395
(dp396
g38
(I0
I14
tp397
sg322
I00
sg323
I00
sg324
g366
sg325
I00
sbag0
(g317
g2
Ntp398
Rp399
(dp400
g38
(I0
I15
tp401
sg322
I00
sg323
I00
sg324
g366
sg325
I00
sbag0
(g317
g2
Ntp402
Rp403
(dp404
g38
(I0
I16
tp405
sg322
I00
sg323
I00
sg324
g366
sg325
I00
sbag0
(g317
g2
Ntp406
Rp407
(dp408
g38
(I0
I17
tp409
sg322
I00
sg323
I00
sg324
g366
sg325
I00
sbag0
(g317
g2
Ntp410
Rp411
(dp412
g38
(I0
I18
tp413
sg322
I00
sg323
I00
sg324
g366
sg325
I00
sbag0
(g317
g2
Ntp414
Rp415
(dp416
g38
(I0
I19
tp417
sg322
I00
sg323
I00
sg324
g366
sg325
I00
sbag0
(g317
g2
Ntp418
Rp419
(dp420
g38
(I0
I20
tp421
sg322
I00
sg323
I00
sg324
Nsg325
I00
sbag0
(g317
g2
Ntp422
Rp423
(dp424
g38
(I0
I21
tp425
sg322
I00
sg323
I00
sg324
Nsg325
I00
sbag0
(g317
g2
Ntp426
Rp427
(dp428
g38
(I0
I22
tp429
sg322
I00
sg323
I00
sg324
Nsg325
I00
sbag0
(g317
g2
Ntp430
Rp431
(dp432
g38
(I0
I23
tp433
sg322
I00
sg323
I00
sg324
Nsg325
I00
sbag0
(g317
g2
Ntp434
Rp435
(dp436
g38
(I0
I24
tp437
sg322
I00
sg323
I00
sg324
Nsg325
I00
sbag0
(g317
g2
Ntp438
Rp439
(dp440
g38
(I0
I25
tp441
sg322
I00
sg323
I00
sg324
Nsg325
I00
sbag0
(g317
g2
Ntp442
Rp443
(dp444
g38
(I0
I26
tp445
sg322
I00
sg323
I00
sg324
Nsg325
I00
sbag0
(g317
g2
Ntp446
Rp447
(dp448
g38
(I0
I27
tp449
sg322
I00
sg323
I00
sg324
Nsg325
I00
sbag0
(g317
g2
Ntp450
Rp451
(dp452
g38
(I0
I28
tp453
sg322
I00
sg323
I00
sg324
Nsg325
I00
sbag0
(g317
g2
Ntp454
Rp455
(dp456
g38
(I0
I29
tp457
sg322
I00
sg323
I00
sg324
Nsg325
I00
sbaa(lp458
g0
(g317
g2
Ntp459
Rp460
(dp461
g38
(I1
I0
tp462
sg322
I00
sg323
I00
sg324
Nsg325
I00
sbag0
(g317
g2
Ntp463
Rp464
(dp465
g38
(I1
I1
tp466
sg322
I00
sg323
I00
sg324
Nsg325
I00
sbag0
(g317
g2
Ntp467
Rp468
(dp469
g38
(I1
I2
tp470
sg322
I00
sg323
I00
sg324
Nsg325
I00
sbag0
(g317
g2
Ntp471
Rp472
(dp473
g38
(I1
I3
tp474
sg322
I00
sg323
I00
sg324
Nsg325
I00
sbag0
(g317
g2
Ntp475
Rp476
(dp477
g38
(I1
I4
tp478
sg322
I00
sg323
I00
sg324
Nsg325
I00
sbag0
(g317
g2
Ntp479
Rp480
(dp481
g38
(I1
I5
tp482
sg322
I00
sg323
I00
sg324
Nsg325
I00
sbag0
(g317
g2
Ntp483
Rp484
(dp485
g38
(I1
I6
tp486
sg322
I00
sg323
I00
sg324
Nsg325
I00
sbag0
(g317
g2
Ntp487
Rp488
(dp489
g38
(I1
I7
tp490
sg322
I00
sg323
I00
sg324
Nsg325
I00
sbag0
(g317
g2
Ntp491
Rp492
(dp493
g38
(I1
I8
tp494
sg322
I00
sg323
I00
sg324
Nsg325
I00
sbag0
(g317
g2
Ntp495
Rp496
(dp497
g38
(I1
I9
tp498
sg322
I00
sg323
I00
sg324
Nsg325
I00
sbag0
(g317
g2
Ntp499
Rp500
(dp501
g38
(I1
I10
tp502
sg322
I00
sg323
I00
sg324
Nsg325
I00
sbag0
(g317
g2
Ntp503
Rp504
(dp505
g38
(I1
I11
tp506
sg322
I00
sg323
I00
sg324
g195
sg325
I00
sbag0
(g317
g2
Ntp507
Rp508
(dp509
g38
(I1
I12
tp510
sg322
I00
sg323
I00
sg324
g206
sg325
I00
sbag0
(g317
g2
Ntp511
Rp512
(dp513
g38
(I1
I13
tp514
sg322
I00
sg323
I00
sg324
g222
sg325
I00
sbag0
(g317
g2
Ntp515
Rp516
(dp517
g38
(I1
I14
tp518
sg322
I00
sg323
I00
sg324
g232
sg325
I00
sbag0
(g317
g2
Ntp519
Rp520
(dp521
g38
(I1
I15
tp522
sg322
I00
sg323
I00
sg324
g242
sg325
I00
sbag0
(g317
g2
Ntp523
Rp524
(dp525
g38
(I1
I16
tp526
sg322
I00
sg323
I00
sg324
g254
sg325
I00
sbag0
(g317
g2
Ntp527
Rp528
(dp529
g38
(I1
I17
tp530
sg322
I00
sg323
I00
sg324
g269
sg325
I00
sbag0
(g317
g2
Ntp531
Rp532
(dp533
g38
(I1
I18
tp534
sg322
I00
sg323
I00
sg324
g278
sg325
I00
sbag0
(g317
g2
Ntp535
Rp536
(dp537
g38
(I1
I19
tp538
sg322
I00
sg323
I00
sg324
Nsg325
I00
sbag0
(g317
g2
Ntp539
Rp540
(dp541
g38
(I1
I20
tp542
sg322
I00
sg323
I00
sg324
Nsg325
I00
sbag0
(g317
g2
Ntp543
Rp544
(dp545
g38
(I1
I21
tp546
sg322
I00
sg323
I00
sg324
Nsg325
I00
sbag0
(g317
g2
Ntp547
Rp548
(dp549
g38
(I1
I22
tp550
sg322
I00
sg323
I00
sg324
Nsg325
I00
sbag0
(g317
g2
Ntp551
Rp552
(dp553
g38
(I1
I23
tp554
sg322
I00
sg323
I00
sg324
Nsg325
I00
sbag0
(g317
g2
Ntp555
Rp556
(dp557
g38
(I1
I24
tp558
sg322
I00
sg323
I00
sg324
Nsg325
I00
sbag0
(g317
g2
Ntp559
Rp560
(dp561
g38
(I1
I25
tp562
sg322
I00
sg323
I00
sg324
Nsg325
I00
sbag0
(g317
g2
Ntp563
Rp564
(dp565
g38
(I1
I26
tp566
sg322
I00
sg323
I00
sg324
Nsg325
I00
sbag0
(g317
g2
Ntp567
Rp568
(dp569
g38
(I1
I27
tp570
sg322
I00
sg323
I00
sg324
Nsg325
I00
sbag0
(g317
g2
Ntp571
Rp572
(dp573
g38
(I1
I28
tp574
sg322
I00
sg323
I00
sg324
Nsg325
I00
sbag0
(g317
g2
Ntp575
Rp576
(dp577
g38
(I1
I29
tp578
sg322
I00
sg323
I00
sg324
Nsg325
I00
sbaa(lp579
g0
(g317
g2
Ntp580
Rp581
(dp582
g38
(I2
I0
tp583
sg322
I00
sg323
I00
sg324
Nsg325
I00
sbag0
(g317
g2
Ntp584
Rp585
(dp586
g38
(I2
I1
tp587
sg322
I00
sg323
I00
sg324
Nsg325
I00
sbag0
(g317
g2
Ntp588
Rp589
(dp590
g38
(I2
I2
tp591
sg322
I00
sg323
I00
sg324
Nsg325
I00
sbag0
(g317
g2
Ntp592
Rp593
(dp594
g38
(I2
I3
tp595
sg322
I00
sg323
I00
sg324
Nsg325
I00
sbag0
(g317
g2
Ntp596
Rp597
(dp598
g38
(I2
I4
tp599
sg322
I00
sg323
I00
sg324
Nsg325
I00
sbag0
(g317
g2
Ntp600
Rp601
(dp602
g38
(I2
I5
tp603
sg322
I00
sg323
I00
sg324
Nsg325
I00
sbag0
(g317
g2
Ntp604
Rp605
(dp606
g38
(I2
I6
tp607
sg322
I00
sg323
I00
sg324
Nsg325
I00
sbag0
(g317
g2
Ntp608
Rp609
(dp610
g38
(I2
I7
tp611
sg322
I00
sg323
I00
sg324
Nsg325
I00
sbag0
(g317
g2
Ntp612
Rp613
(dp614
g38
(I2
I8
tp615
sg322
I00
sg323
I00
sg324
Nsg325
I00
sbag0
(g317
g2
Ntp616
Rp617
(dp618
g38
(I2
I9
tp619
sg322
I00
sg323
I00
sg324
Nsg325
I00
sbag0
(g317
g2
Ntp620
Rp621
(dp622
g38
(I2
I10
tp623
sg322
I00
sg323
I00
sg324
Nsg325
I00
sbag0
(g317
g2
Ntp624
Rp625
(dp626
g38
(I2
I11
tp627
sg322
I00
sg323
I00
sg324
g195
sg325
I00
sbag0
(g317
g2
Ntp628
Rp629
(dp630
g38
(I2
I12
tp631
sg322
I00
sg323
I00
sg324
g206
sg325
I00
sbag0
(g317
g2
Ntp632
Rp633
(dp634
g38
(I2
I13
tp635
sg322
I00
sg323
I00
sg324
g222
sg325
I00
sbag0
(g317
g2
Ntp636
Rp637
(dp638
g38
(I2
I14
tp639
sg322
I00
sg323
I00
sg324
g232
sg325
I00
sbag0
(g317
g2
Ntp640
Rp641
(dp642
g38
(I2
I15
tp643
sg322
I00
sg323
I00
sg324
g242
sg325
I00
sbag0
(g317
g2
Ntp644
Rp645
(dp646
g38
(I2
I16
tp647
sg322
I00
sg323
I00
sg324
g254
sg325
I00
sbag0
(g317
g2
Ntp648
Rp649
(dp650
g38
(I2
I17
tp651
sg322
I00
sg323
I00
sg324
g269
sg325
I00
sbag0
(g317
g2
Ntp652
Rp653
(dp654
g38
(I2
I18
tp655
sg322
I00
sg323
I00
sg324
g278
sg325
I00
sbag0
(g317
g2
Ntp656
Rp657
(dp658
g38
(I2
I19
tp659
sg322
I00
sg323
I00
sg324
Nsg325
I00
sbag0
(g317
g2
Ntp660
Rp661
(dp662
g38
(I2
I20
tp663
sg322
I00
sg323
I00
sg324
Nsg325
I00
sbag0
(g317
g2
Ntp664
Rp665
(dp666
g38
(I2
I21
tp667
sg322
I00
sg323
I00
sg324
Nsg325
I00
sbag0
(g317
g2
Ntp668
Rp669
(dp670
g38
(I2
I22
tp671
sg322
I00
sg323
I00
sg324
Nsg325
I00
sbag0
(g317
g2
Ntp672
Rp673
(dp674
g38
(I2
I23
tp675
sg322
I00
sg323
I00
sg324
Nsg325
I00
sbag0
(g317
g2
Ntp676
Rp677
(dp678
g38
(I2
I24
tp679
sg322
I00
sg323
I00
sg324
Nsg325
I00
sbag0
(g317
g2
Ntp680
Rp681
(dp682
g38
(I2
I25
tp683
sg322
I00
sg323
I00
sg324
Nsg325
I00
sbag0
(g317
g2
Ntp684
Rp685
(dp686
g38
(I2
I26
tp687
sg322
I00
sg323
I00
sg324
Nsg325
I00
sbag0
(g317
g2
Ntp688
Rp689
(dp690
g38
(I2
I27
tp691
sg322
I00
sg323
I00
sg324
Nsg325
I00
sbag0
(g317
g2
Ntp692
Rp693
(dp694
g38
(I2
I28
tp695
sg322
I00
sg323
I00
sg324
Nsg325
I00
sbag0
(g317
g2
Ntp696
Rp697
(dp698
g38
(I2
I29
tp699
sg322
I00
sg323
I00
sg324
Nsg325
I00
sbaa(lp700
g0
(g317
g2
Ntp701
Rp702
(dp703
g38
(I3
I0
tp704
sg322
I00
sg323
I00
sg324
Nsg325
I00
sbag0
(g317
g2
Ntp705
Rp706
(dp707
g38
(I3
I1
tp708
sg322
I00
sg323
I00
sg324
Nsg325
I00
sbag0
(g317
g2
Ntp709
Rp710
(dp711
g38
(I3
I2
tp712
sg322
I00
sg323
I00
sg324
Nsg325
I00
sbag0
(g317
g2
Ntp713
Rp714
(dp715
g38
(I3
I3
tp716
sg322
I00
sg323
I00
sg324
Nsg325
I00
sbag0
(g317
g2
Ntp717
Rp718
(dp719
g38
(I3
I4
tp720
sg322
I00
sg323
I00
sg324
Nsg325
I00
sbag0
(g317
g2
Ntp721
Rp722
(dp723
g38
(I3
I5
tp724
sg322
I00
sg323
I00
sg324
Nsg325
I00
sbag0
(g317
g2
Ntp725
Rp726
(dp727
g38
(I3
I6
tp728
sg322
I00
sg323
I00
sg324
Nsg325
I00
sbag0
(g317
g2
Ntp729
Rp730
(dp731
g38
(I3
I7
tp732
sg322
I00
sg323
I00
sg324
Nsg325
I00
sbag0
(g317
g2
Ntp733
Rp734
(dp735
g38
(I3
I8
tp736
sg322
I00
sg323
I00
sg324
Nsg325
I00
sbag0
(g317
g2
Ntp737
Rp738
(dp739
g38
(I3
I9
tp740
sg322
I00
sg323
I00
sg324
Nsg325
I00
sbag0
(g317
g2
Ntp741
Rp742
(dp743
g38
(I3
I10
tp744
sg322
I00
sg323
I00
sg324
Nsg325
I00
sbag0
(g317
g2
Ntp745
Rp746
(dp747
g38
(I3
I11
tp748
sg322
I00
sg323
I00
sg324
g195
sg325
I00
sbag0
(g317
g2
Ntp749
Rp750
(dp751
g38
(I3
I12
tp752
sg322
I00
sg323
I00
sg324
g206
sg325
I00
sbag0
(g317
g2
Ntp753
Rp754
(dp755
g38
(I3
I13
tp756
sg322
I00
sg323
I00
sg324
g222
sg325
I00
sbag0
(g317
g2
Ntp757
Rp758
(dp759
g38
(I3
I14
tp760
sg322
I00
sg323
I00
sg324
g232
sg325
I00
sbag0
(g317
g2
Ntp761
Rp762
(dp763
g38
(I3
I15
tp764
sg322
I00
sg323
I00
sg324
g242
sg325
I00
sbag0
(g317
g2
Ntp765
Rp766
(dp767
g38
(I3
I16
tp768
sg322
I00
sg323
I00
sg324
g254
sg325
I00
sbag0
(g317
g2
Ntp769
Rp770
(dp771
g38
(I3
I17
tp772
sg322
I00
sg323
I00
sg324
g269
sg325
I00
sbag0
(g317
g2
Ntp773
Rp774
(dp775
g38
(I3
I18
tp776
sg322
I00
sg323
I00
sg324
Nsg325
I00
sbag0
(g317
g2
Ntp777
Rp778
(dp779
g38
(I3
I19
tp780
sg322
I00
sg323
I00
sg324
g290
sg325
I00
sbag0
(g317
g2
Ntp781
Rp782
(dp783
g38
(I3
I20
tp784
sg322
I00
sg323
I00
sg324
Nsg325
I00
sbag0
(g317
g2
Ntp785
Rp786
(dp787
g38
(I3
I21
tp788
sg322
I00
sg323
I00
sg324
Nsg325
I00
sbag0
(g317
g2
Ntp789
Rp790
(dp791
g38
(I3
I22
tp792
sg322
I00
sg323
I00
sg324
Nsg325
I00
sbag0
(g317
g2
Ntp793
Rp794
(dp795
g38
(I3
I23
tp796
sg322
I00
sg323
I00
sg324
Nsg325
I00
sbag0
(g317
g2
Ntp797
Rp798
(dp799
g38
(I3
I24
tp800
sg322
I00
sg323
I00
sg324
Nsg325
I00
sbag0
(g317
g2
Ntp801
Rp802
(dp803
g38
(I3
I25
tp804
sg322
I00
sg323
I00
sg324
Nsg325
I00
sbag0
(g317
g2
Ntp805
Rp806
(dp807
g38
(I3
I26
tp808
sg322
I00
sg323
I00
sg324
Nsg325
I00
sbag0
(g317
g2
Ntp809
Rp810
(dp811
g38
(I3
I27
tp812
sg322
I00
sg323
I00
sg324
Nsg325
I00
sbag0
(g317
g2
Ntp813
Rp814
(dp815
g38
(I3
I28
tp816
sg322
I00
sg323
I00
sg324
Nsg325
I00
sbag0
(g317
g2
Ntp817
Rp818
(dp819
g38
(I3
I29
tp820
sg322
I00
sg323
I00
sg324
Nsg325
I00
sbaa(lp821
g0
(g317
g2
Ntp822
Rp823
(dp824
g38
(I4
I0
tp825
sg322
I00
sg323
I00
sg324
Nsg325
I00
sbag0
(g317
g2
Ntp826
Rp827
(dp828
g38
(I4
I1
tp829
sg322
I00
sg323
I00
sg324
Nsg325
I00
sbag0
(g317
g2
Ntp830
Rp831
(dp832
g38
(I4
I2
tp833
sg322
I00
sg323
I00
sg324
Nsg325
I00
sbag0
(g317
g2
Ntp834
Rp835
(dp836
g38
(I4
I3
tp837
sg322
I00
sg323
I00
sg324
Nsg325
I00
sbag0
(g317
g2
Ntp838
Rp839
(dp840
g38
(I4
I4
tp841
sg322
I00
sg323
I00
sg324
Nsg325
I00
sbag0
(g317
g2
Ntp842
Rp843
(dp844
g38
(I4
I5
tp845
sg322
I00
sg323
I00
sg324
Nsg325
I00
sbag0
(g317
g2
Ntp846
Rp847
(dp848
g38
(I4
I6
tp849
sg322
I00
sg323
I00
sg324
Nsg325
I00
sbag0
(g317
g2
Ntp850
Rp851
(dp852
g38
(I4
I7
tp853
sg322
I00
sg323
I00
sg324
Nsg325
I00
sbag0
(g317
g2
Ntp854
Rp855
(dp856
g38
(I4
I8
tp857
sg322
I00
sg323
I00
sg324
Nsg325
I00
sbag0
(g317
g2
Ntp858
Rp859
(dp860
g38
(I4
I9
tp861
sg322
I00
sg323
I00
sg324
Nsg325
I00
sbag0
(g317
g2
Ntp862
Rp863
(dp864
g38
(I4
I10
tp865
sg322
I00
sg323
I00
sg324
Nsg325
I00
sbag0
(g317
g2
Ntp866
Rp867
(dp868
g38
(I4
I11
tp869
sg322
I00
sg323
I00
sg324
g195
sg325
I00
sbag0
(g317
g2
Ntp870
Rp871
(dp872
g38
(I4
I12
tp873
sg322
I00
sg323
I00
sg324
g206
sg325
I00
sbag0
(g317
g2
Ntp874
Rp875
(dp876
g38
(I4
I13
tp877
sg322
I00
sg323
I00
sg324
g222
sg325
I00
sbag0
(g317
g2
Ntp878
Rp879
(dp880
g38
(I4
I14
tp881
sg322
I00
sg323
I00
sg324
g232
sg325
I00
sbag0
(g317
g2
Ntp882
Rp883
(dp884
g38
(I4
I15
tp885
sg322
I00
sg323
I00
sg324
Nsg325
I00
sbag0
(g317
g2
Ntp886
Rp887
(dp888
g38
(I4
I16
tp889
sg322
I00
sg323
I00
sg324
Nsg325
I00
sbag0
(g317
g2
Ntp890
Rp891
(dp892
g38
(I4
I17
tp893
sg322
I00
sg323
I00
sg324
Nsg325
I00
sbag0
(g317
g2
Ntp894
Rp895
(dp896
g38
(I4
I18
tp897
sg322
I00
sg323
I00
sg324
Nsg325
I00
sbag0
(g317
g2
Ntp898
Rp899
(dp900
g38
(I4
I19
tp901
sg322
I00
sg323
I00
sg324
g290
sg325
I00
sbag0
(g317
g2
Ntp902
Rp903
(dp904
g38
(I4
I20
tp905
sg322
I00
sg323
I00
sg324
Nsg325
I00
sbag0
(g317
g2
Ntp906
Rp907
(dp908
g38
(I4
I21
tp909
sg322
I00
sg323
I00
sg324
Nsg325
I00
sbag0
(g317
g2
Ntp910
Rp911
(dp912
g38
(I4
I22
tp913
sg322
I00
sg323
I00
sg324
Nsg325
I00
sbag0
(g317
g2
Ntp914
Rp915
(dp916
g38
(I4
I23
tp917
sg322
I00
sg323
I00
sg324
Nsg325
I00
sbag0
(g317
g2
Ntp918
Rp919
(dp920
g38
(I4
I24
tp921
sg322
I00
sg323
I00
sg324
Nsg325
I00
sbag0
(g317
g2
Ntp922
Rp923
(dp924
g38
(I4
I25
tp925
sg322
I00
sg323
I00
sg324
Nsg325
I00
sbag0
(g317
g2
Ntp926
Rp927
(dp928
g38
(I4
I26
tp929
sg322
I00
sg323
I00
sg324
Nsg325
I00
sbag0
(g317
g2
Ntp930
Rp931
(dp932
g38
(I4
I27
tp933
sg322
I00
sg323
I00
sg324
Nsg325
I00
sbag0
(g317
g2
Ntp934
Rp935
(dp936
g38
(I4
I28
tp937
sg322
I00
sg323
I00
sg324
Nsg325
I00
sbag0
(g317
g2
Ntp938
Rp939
(dp940
g38
(I4
I29
tp941
sg322
I00
sg323
I00
sg324
Nsg325
I00
sbaa(lp942
g0
(g317
g2
Ntp943
Rp944
(dp945
g38
(I5
I0
tp946
sg322
I00
sg323
I00
sg324
Nsg325
I00
sbag0
(g317
g2
Ntp947
Rp948
(dp949
g38
(I5
I1
tp950
sg322
I00
sg323
I00
sg324
Nsg325
I00
sbag0
(g317
g2
Ntp951
Rp952
(dp953
g38
(I5
I2
tp954
sg322
I00
sg323
I00
sg324
Nsg325
I00
sbag0
(g317
g2
Ntp955
Rp956
(dp957
g38
(I5
I3
tp958
sg322
I00
sg323
I00
sg324
Nsg325
I00
sbag0
(g317
g2
Ntp959
Rp960
(dp961
g38
(I5
I4
tp962
sg322
I00
sg323
I00
sg324
Nsg325
I00
sbag0
(g317
g2
Ntp963
Rp964
(dp965
g38
(I5
I5
tp966
sg322
I00
sg323
I00
sg324
Nsg325
I00
sbag0
(g317
g2
Ntp967
Rp968
(dp969
g38
(I5
I6
tp970
sg322
I00
sg323
I00
sg324
Nsg325
I00
sbag0
(g317
g2
Ntp971
Rp972
(dp973
g38
(I5
I7
tp974
sg322
I00
sg323
I00
sg324
Nsg325
I00
sbag0
(g317
g2
Ntp975
Rp976
(dp977
g38
(I5
I8
tp978
sg322
I00
sg323
I00
sg324
Nsg325
I00
sbag0
(g317
g2
Ntp979
Rp980
(dp981
g38
(I5
I9
tp982
sg322
I00
sg323
I00
sg324
Nsg325
I00
sbag0
(g317
g2
Ntp983
Rp984
(dp985
g38
(I5
I10
tp986
sg322
I00
sg323
I00
sg324
Nsg325
I00
sbag0
(g317
g2
Ntp987
Rp988
(dp989
g38
(I5
I11
tp990
sg322
I00
sg323
I00
sg324
g195
sg325
I00
sbag0
(g317
g2
Ntp991
Rp992
(dp993
g38
(I5
I12
tp994
sg322
I00
sg323
I00
sg324
Nsg325
I00
sbag0
(g317
g2
Ntp995
Rp996
(dp997
g38
(I5
I13
tp998
sg322
I00
sg323
I00
sg324
Nsg325
I00
sbag0
(g317
g2
Ntp999
Rp1000
(dp1001
g38
(I5
I14
tp1002
sg322
I00
sg323
I00
sg324
Nsg325
I00
sbag0
(g317
g2
Ntp1003
Rp1004
(dp1005
g38
(I5
I15
tp1006
sg322
I00
sg323
I00
sg324
Nsg325
I00
sbag0
(g317
g2
Ntp1007
Rp1008
(dp1009
g38
(I5
I16
tp1010
sg322
I00
sg323
I00
sg324
Nsg325
I00
sbag0
(g317
g2
Ntp1011
Rp1012
(dp1013
g38
(I5
I17
tp1014
sg322
I00
sg323
I00
sg324
Nsg325
I00
sbag0
(g317
g2
Ntp1015
Rp1016
(dp1017
g38
(I5
I18
tp1018
sg322
I00
sg323
I00
sg324
Nsg325
I00
sbag0
(g317
g2
Ntp1019
Rp1020
(dp1021
g38
(I5
I19
tp1022
sg322
I00
sg323
I00
sg324
Nsg325
I00
sbag0
(g317
g2
Ntp1023
Rp1024
(dp1025
g38
(I5
I20
tp1026
sg322
I00
sg323
I00
sg324
Nsg325
I00
sbag0
(g317
g2
Ntp1027
Rp1028
(dp1029
g38
(I5
I21
tp1030
sg322
I00
sg323
I00
sg324
Nsg325
I00
sbag0
(g317
g2
Ntp1031
Rp1032
(dp1033
g38
(I5
I22
tp1034
sg322
I00
sg323
I00
sg324
Nsg325
I00
sbag0
(g317
g2
Ntp1035
Rp1036
(dp1037
g38
(I5
I23
tp1038
sg322
I00
sg323
I00
sg324
Nsg325
I00
sbag0
(g317
g2
Ntp1039
Rp1040
(dp1041
g38
(I5
I24
tp1042
sg322
I00
sg323
I00
sg324
Nsg325
I00
sbag0
(g317
g2
Ntp1043
Rp1044
(dp1045
g38
(I5
I25
tp1046
sg322
I00
sg323
I00
sg324
Nsg325
I00
sbag0
(g317
g2
Ntp1047
Rp1048
(dp1049
g38
(I5
I26
tp1050
sg322
I00
sg323
I00
sg324
Nsg325
I00
sbag0
(g317
g2
Ntp1051
Rp1052
(dp1053
g38
(I5
I27
tp1054
sg322
I00
sg323
I00
sg324
Nsg325
I00
sbag0
(g317
g2
Ntp1055
Rp1056
(dp1057
g38
(I5
I28
tp1058
sg322
I00
sg323
I00
sg324
Nsg325
I00
sbag0
(g317
g2
Ntp1059
Rp1060
(dp1061
g38
(I5
I29
tp1062
sg322
I00
sg323
I00
sg324
Nsg325
I00
sbaa(lp1063
g0
(g317
g2
Ntp1064
Rp1065
(dp1066
g38
(I6
I0
tp1067
sg322
I00
sg323
I00
sg324
Nsg325
I00
sbag0
(g317
g2
Ntp1068
Rp1069
(dp1070
g38
(I6
I1
tp1071
sg322
I00
sg323
I00
sg324
Nsg325
I00
sbag0
(g317
g2
Ntp1072
Rp1073
(dp1074
g38
(I6
I2
tp1075
sg322
I00
sg323
I00
sg324
Nsg325
I00
sbag0
(g317
g2
Ntp1076
Rp1077
(dp1078
g38
(I6
I3
tp1079
sg322
I00
sg323
I00
sg324
Nsg325
I00
sbag0
(g317
g2
Ntp1080
Rp1081
(dp1082
g38
(I6
I4
tp1083
sg322
I00
sg323
I00
sg324
Nsg325
I00
sbag0
(g317
g2
Ntp1084
Rp1085
(dp1086
g38
(I6
I5
tp1087
sg322
I00
sg323
I00
sg324
Nsg325
I00
sbag0
(g317
g2
Ntp1088
Rp1089
(dp1090
g38
(I6
I6
tp1091
sg322
I00
sg323
I00
sg324
Nsg325
I00
sbag0
(g317
g2
Ntp1092
Rp1093
(dp1094
g38
(I6
I7
tp1095
sg322
I00
sg323
I00
sg324
Nsg325
I00
sbag0
(g317
g2
Ntp1096
Rp1097
(dp1098
g38
(I6
I8
tp1099
sg322
I00
sg323
I00
sg324
Nsg325
I00
sbag0
(g317
g2
Ntp1100
Rp1101
(dp1102
g38
(I6
I9
tp1103
sg322
I00
sg323
I00
sg324
Nsg325
I00
sbag0
(g317
g2
Ntp1104
Rp1105
(dp1106
g38
(I6
I10
tp1107
sg322
I00
sg323
I00
sg324
Nsg325
I00
sbag0
(g317
g2
Ntp1108
Rp1109
(dp1110
g38
(I6
I11
tp1111
sg322
I00
sg323
I00
sg324
Nsg325
I00
sbag0
(g317
g2
Ntp1112
Rp1113
(dp1114
g38
(I6
I12
tp1115
sg322
I00
sg323
I00
sg324
Nsg325
I00
sbag0
(g317
g2
Ntp1116
Rp1117
(dp1118
g38
(I6
I13
tp1119
sg322
I00
sg323
I00
sg324
Nsg325
I00
sbag0
(g317
g2
Ntp1120
Rp1121
(dp1122
g38
(I6
I14
tp1123
sg322
I00
sg323
I00
sg324
Nsg325
I00
sbag0
(g317
g2
Ntp1124
Rp1125
(dp1126
g38
(I6
I15
tp1127
sg322
I00
sg323
I00
sg324
Nsg325
I00
sbag0
(g317
g2
Ntp1128
Rp1129
(dp1130
g38
(I6
I16
tp1131
sg322
I00
sg323
I00
sg324
Nsg325
I00
sbag0
(g317
g2
Ntp1132
Rp1133
(dp1134
g38
(I6
I17
tp1135
sg322
I00
sg323
I00
sg324
Nsg325
I00
sbag0
(g317
g2
Ntp1136
Rp1137
(dp1138
g38
(I6
I18
tp1139
sg322
I00
sg323
I00
sg324
Nsg325
I00
sbag0
(g317
g2
Ntp1140
Rp1141
(dp1142
g38
(I6
I19
tp1143
sg322
I00
sg323
I00
sg324
Nsg325
I00
sbag0
(g317
g2
Ntp1144
Rp1145
(dp1146
g38
(I6
I20
tp1147
sg322
I00
sg323
I00
sg324
Nsg325
I00
sbag0
(g317
g2
Ntp1148
Rp1149
(dp1150
g38
(I6
I21
tp1151
sg322
I00
sg323
I00
sg324
Nsg325
I00
sbag0
(g317
g2
Ntp1152
Rp1153
(dp1154
g38
(I6
I22
tp1155
sg322
I00
sg323
I00
sg324
Nsg325
I00
sbag0
(g317
g2
Ntp1156
Rp1157
(dp1158
g38
(I6
I23
tp1159
sg322
I00
sg323
I00
sg324
Nsg325
I00
sbag0
(g317
g2
Ntp1160
Rp1161
(dp1162
g38
(I6
I24
tp1163
sg322
I00
sg323
I00
sg324
Nsg325
I00
sbag0
(g317
g2
Ntp1164
Rp1165
(dp1166
g38
(I6
I25
tp1167
sg322
I00
sg323
I00
sg324
Nsg325
I00
sbag0
(g317
g2
Ntp1168
Rp1169
(dp1170
g38
(I6
I26
tp1171
sg322
I00
sg323
I00
sg324
Nsg325
I00
sbag0
(g317
g2
Ntp1172
Rp1173
(dp1174
g38
(I6
I27
tp1175
sg322
I00
sg323
I00
sg324
Nsg325
I00
sbag0
(g317
g2
Ntp1176
Rp1177
(dp1178
g38
(I6
I28
tp1179
sg322
I00
sg323
I00
sg324
Nsg325
I00
sbag0
(g317
g2
Ntp1180
Rp1181
(dp1182
g38
(I6
I29
tp1183
sg322
I00
sg323
I00
sg324
Nsg325
I00
sbaa(lp1184
g0
(g317
g2
Ntp1185
Rp1186
(dp1187
g38
(I7
I0
tp1188
sg322
I00
sg323
I00
sg324
Nsg325
I00
sbag0
(g317
g2
Ntp1189
Rp1190
(dp1191
g38
(I7
I1
tp1192
sg322
I00
sg323
I00
sg324
Nsg325
I00
sbag0
(g317
g2
Ntp1193
Rp1194
(dp1195
g38
(I7
I2
tp1196
sg322
I00
sg323
I00
sg324
Nsg325
I00
sbag0
(g317
g2
Ntp1197
Rp1198
(dp1199
g38
(I7
I3
tp1200
sg322
I00
sg323
I00
sg324
Nsg325
I00
sbag0
(g317
g2
Ntp1201
Rp1202
(dp1203
g38
(I7
I4
tp1204
sg322
I00
sg323
I00
sg324
Nsg325
I00
sbag0
(g317
g2
Ntp1205
Rp1206
(dp1207
g38
(I7
I5
tp1208
sg322
I00
sg323
I00
sg324
Nsg325
I00
sbag0
(g317
g2
Ntp1209
Rp1210
(dp1211
g38
(I7
I6
tp1212
sg322
I00
sg323
I00
sg324
Nsg325
I00
sbag0
(g317
g2
Ntp1213
Rp1214
(dp1215
g38
(I7
I7
tp1216
sg322
I00
sg323
I00
sg324
Nsg325
I00
sbag0
(g317
g2
Ntp1217
Rp1218
(dp1219
g38
(I7
I8
tp1220
sg322
I00
sg323
I00
sg324
Nsg325
I00
sbag0
(g317
g2
Ntp1221
Rp1222
(dp1223
g38
(I7
I9
tp1224
sg322
I00
sg323
I00
sg324
Nsg325
I00
sbag0
(g317
g2
Ntp1225
Rp1226
(dp1227
g38
(I7
I10
tp1228
sg322
I00
sg323
I00
sg324
Nsg325
I00
sbag0
(g317
g2
Ntp1229
Rp1230
(dp1231
g38
(I7
I11
tp1232
sg322
I00
sg323
I00
sg324
Nsg325
I00
sbag0
(g317
g2
Ntp1233
Rp1234
(dp1235
g38
(I7
I12
tp1236
sg322
I00
sg323
I00
sg324
Nsg325
I00
sbag0
(g317
g2
Ntp1237
Rp1238
(dp1239
g38
(I7
I13
tp1240
sg322
I00
sg323
I00
sg324
Nsg325
I00
sbag0
(g317
g2
Ntp1241
Rp1242
(dp1243
g38
(I7
I14
tp1244
sg322
I00
sg323
I00
sg324
Nsg325
I00
sbag0
(g317
g2
Ntp1245
Rp1246
(dp1247
g38
(I7
I15
tp1248
sg322
I00
sg323
I00
sg324
Nsg325
I00
sbag0
(g317
g2
Ntp1249
Rp1250
(dp1251
g38
(I7
I16
tp1252
sg322
I00
sg323
I00
sg324
Nsg325
I00
sbag0
(g317
g2
Ntp1253
Rp1254
(dp1255
g38
(I7
I17
tp1256
sg322
I00
sg323
I00
sg324
Nsg325
I00
sbag0
(g317
g2
Ntp1257
Rp1258
(dp1259
g38
(I7
I18
tp1260
sg322
I00
sg323
I00
sg324
Nsg325
I00
sbag0
(g317
g2
Ntp1261
Rp1262
(dp1263
g38
(I7
I19
tp1264
sg322
I00
sg323
I00
sg324
Nsg325
I00
sbag0
(g317
g2
Ntp1265
Rp1266
(dp1267
g38
(I7
I20
tp1268
sg322
I00
sg323
I00
sg324
Nsg325
I00
sbag0
(g317
g2
Ntp1269
Rp1270
(dp1271
g38
(I7
I21
tp1272
sg322
I00
sg323
I00
sg324
Nsg325
I00
sbag0
(g317
g2
Ntp1273
Rp1274
(dp1275
g38
(I7
I22
tp1276
sg322
I00
sg323
I00
sg324
Nsg325
I00
sbag0
(g317
g2
Ntp1277
Rp1278
(dp1279
g38
(I7
I23
tp1280
sg322
I00
sg323
I00
sg324
Nsg325
I00
sbag0
(g317
g2
Ntp1281
Rp1282
(dp1283
g38
(I7
I24
tp1284
sg322
I00
sg323
I00
sg324
Nsg325
I00
sbag0
(g317
g2
Ntp1285
Rp1286
(dp1287
g38
(I7
I25
tp1288
sg322
I00
sg323
I00
sg324
Nsg325
I00
sbag0
(g317
g2
Ntp1289
Rp1290
(dp1291
g38
(I7
I26
tp1292
sg322
I00
sg323
I00
sg324
Nsg325
I00
sbag0
(g317
g2
Ntp1293
Rp1294
(dp1295
g38
(I7
I27
tp1296
sg322
I00
sg323
I00
sg324
Nsg325
I00
sbag0
(g317
g2
Ntp1297
Rp1298
(dp1299
g38
(I7
I28
tp1300
sg322
I00
sg323
I00
sg324
Nsg325
I00
sbag0
(g317
g2
Ntp1301
Rp1302
(dp1303
g38
(I7
I29
tp1304
sg322
I00
sg323
I00
sg324
Nsg325
I00
sbaa(lp1305
g0
(g317
g2
Ntp1306
Rp1307
(dp1308
g38
(I8
I0
tp1309
sg322
I00
sg323
I00
sg324
Nsg325
I00
sbag0
(g317
g2
Ntp1310
Rp1311
(dp1312
g38
(I8
I1
tp1313
sg322
I00
sg323
I00
sg324
Nsg325
I00
sbag0
(g317
g2
Ntp1314
Rp1315
(dp1316
g38
(I8
I2
tp1317
sg322
I00
sg323
I00
sg324
Nsg325
I00
sbag0
(g317
g2
Ntp1318
Rp1319
(dp1320
g38
(I8
I3
tp1321
sg322
I00
sg323
I00
sg324
Nsg325
I00
sbag0
(g317
g2
Ntp1322
Rp1323
(dp1324
g38
(I8
I4
tp1325
sg322
I00
sg323
I00
sg324
Nsg325
I00
sbag0
(g317
g2
Ntp1326
Rp1327
(dp1328
g38
(I8
I5
tp1329
sg322
I00
sg323
I00
sg324
Nsg325
I00
sbag0
(g317
g2
Ntp1330
Rp1331
(dp1332
g38
(I8
I6
tp1333
sg322
I00
sg323
I00
sg324
Nsg325
I00
sbag0
(g317
g2
Ntp1334
Rp1335
(dp1336
g38
(I8
I7
tp1337
sg322
I00
sg323
I00
sg324
Nsg325
I00
sbag0
(g317
g2
Ntp1338
Rp1339
(dp1340
g38
(I8
I8
tp1341
sg322
I00
sg323
I00
sg324
Nsg325
I00
sbag0
(g317
g2
Ntp1342
Rp1343
(dp1344
g38
(I8
I9
tp1345
sg322
I00
sg323
I00
sg324
Nsg325
I00
sbag0
(g317
g2
Ntp1346
Rp1347
(dp1348
g38
(I8
I10
tp1349
sg322
I00
sg323
I00
sg324
Nsg325
I00
sbag0
(g317
g2
Ntp1350
Rp1351
(dp1352
g38
(I8
I11
tp1353
sg322
I00
sg323
I00
sg324
Nsg325
I00
sbag0
(g317
g2
Ntp1354
Rp1355
(dp1356
g38
(I8
I12
tp1357
sg322
I00
sg323
I00
sg324
Nsg325
I00
sbag0
(g317
g2
Ntp1358
Rp1359
(dp1360
g38
(I8
I13
tp1361
sg322
I00
sg323
I00
sg324
Nsg325
I00
sbag0
(g317
g2
Ntp1362
Rp1363
(dp1364
g38
(I8
I14
tp1365
sg322
I00
sg323
I00
sg324
Nsg325
I00
sbag0
(g317
g2
Ntp1366
Rp1367
(dp1368
g38
(I8
I15
tp1369
sg322
I00
sg323
I00
sg324
Nsg325
I00
sbag0
(g317
g2
Ntp1370
Rp1371
(dp1372
g38
(I8
I16
tp1373
sg322
I00
sg323
I00
sg324
Nsg325
I00
sbag0
(g317
g2
Ntp1374
Rp1375
(dp1376
g38
(I8
I17
tp1377
sg322
I00
sg323
I00
sg324
Nsg325
I00
sbag0
(g317
g2
Ntp1378
Rp1379
(dp1380
g38
(I8
I18
tp1381
sg322
I00
sg323
I00
sg324
Nsg325
I00
sbag0
(g317
g2
Ntp1382
Rp1383
(dp1384
g38
(I8
I19
tp1385
sg322
I00
sg323
I00
sg324
Nsg325
I00
sbag0
(g317
g2
Ntp1386
Rp1387
(dp1388
g38
(I8
I20
tp1389
sg322
I00
sg323
I00
sg324
Nsg325
I00
sbag0
(g317
g2
Ntp1390
Rp1391
(dp1392
g38
(I8
I21
tp1393
sg322
I00
sg323
I00
sg324
Nsg325
I00
sbag0
(g317
g2
Ntp1394
Rp1395
(dp1396
g38
(I8
I22
tp1397
sg322
I00
sg323
I00
sg324
Nsg325
I00
sbag0
(g317
g2
Ntp1398
Rp1399
(dp1400
g38
(I8
I23
tp1401
sg322
I00
sg323
I00
sg324
Nsg325
I00
sbag0
(g317
g2
Ntp1402
Rp1403
(dp1404
g38
(I8
I24
tp1405
sg322
I00
sg323
I00
sg324
Nsg325
I00
sbag0
(g317
g2
Ntp1406
Rp1407
(dp1408
g38
(I8
I25
tp1409
sg322
I00
sg323
I00
sg324
Nsg325
I00
sbag0
(g317
g2
Ntp1410
Rp1411
(dp1412
g38
(I8
I26
tp1413
sg322
I00
sg323
I00
sg324
Nsg325
I00
sbag0
(g317
g2
Ntp1414
Rp1415
(dp1416
g38
(I8
I27
tp1417
sg322
I00
sg323
I00
sg324
Nsg325
I00
sbag0
(g317
g2
Ntp1418
Rp1419
(dp1420
g38
(I8
I28
tp1421
sg322
I00
sg323
I00
sg324
Nsg325
I00
sbag0
(g317
g2
Ntp1422
Rp1423
(dp1424
g38
(I8
I29
tp1425
sg322
I00
sg323
I00
sg324
Nsg325
I00
sbaa(lp1426
g0
(g317
g2
Ntp1427
Rp1428
(dp1429
g38
(I9
I0
tp1430
sg322
I00
sg323
I00
sg324
Nsg325
I00
sbag0
(g317
g2
Ntp1431
Rp1432
(dp1433
g38
(I9
I1
tp1434
sg322
I00
sg323
I00
sg324
Nsg325
I00
sbag0
(g317
g2
Ntp1435
Rp1436
(dp1437
g38
(I9
I2
tp1438
sg322
I00
sg323
I00
sg324
Nsg325
I00
sbag0
(g317
g2
Ntp1439
Rp1440
(dp1441
g38
(I9
I3
tp1442
sg322
I00
sg323
I00
sg324
Nsg325
I00
sbag0
(g317
g2
Ntp1443
Rp1444
(dp1445
g38
(I9
I4
tp1446
sg322
I00
sg323
I00
sg324
Nsg325
I00
sbag0
(g317
g2
Ntp1447
Rp1448
(dp1449
g38
(I9
I5
tp1450
sg322
I00
sg323
I00
sg324
Nsg325
I00
sbag0
(g317
g2
Ntp1451
Rp1452
(dp1453
g38
(I9
I6
tp1454
sg322
I00
sg323
I00
sg324
Nsg325
I00
sbag0
(g317
g2
Ntp1455
Rp1456
(dp1457
g38
(I9
I7
tp1458
sg322
I00
sg323
I00
sg324
Nsg325
I00
sbag0
(g317
g2
Ntp1459
Rp1460
(dp1461
g38
(I9
I8
tp1462
sg322
I00
sg323
I00
sg324
Nsg325
I00
sbag0
(g317
g2
Ntp1463
Rp1464
(dp1465
g38
(I9
I9
tp1466
sg322
I00
sg323
I00
sg324
Nsg325
I00
sbag0
(g317
g2
Ntp1467
Rp1468
(dp1469
g38
(I9
I10
tp1470
sg322
I00
sg323
I00
sg324
Nsg325
I00
sbag0
(g317
g2
Ntp1471
Rp1472
(dp1473
g38
(I9
I11
tp1474
sg322
I00
sg323
I00
sg324
Nsg325
I00
sbag0
(g317
g2
Ntp1475
Rp1476
(dp1477
g38
(I9
I12
tp1478
sg322
I00
sg323
I00
sg324
Nsg325
I00
sbag0
(g317
g2
Ntp1479
Rp1480
(dp1481
g38
(I9
I13
tp1482
sg322
I00
sg323
I00
sg324
Nsg325
I00
sbag0
(g317
g2
Ntp1483
Rp1484
(dp1485
g38
(I9
I14
tp1486
sg322
I00
sg323
I00
sg324
Nsg325
I00
sbag0
(g317
g2
Ntp1487
Rp1488
(dp1489
g38
(I9
I15
tp1490
sg322
I00
sg323
I00
sg324
Nsg325
I00
sbag0
(g317
g2
Ntp1491
Rp1492
(dp1493
g38
(I9
I16
tp1494
sg322
I00
sg323
I00
sg324
Nsg325
I00
sbag0
(g317
g2
Ntp1495
Rp1496
(dp1497
g38
(I9
I17
tp1498
sg322
I00
sg323
I00
sg324
Nsg325
I00
sbag0
(g317
g2
Ntp1499
Rp1500
(dp1501
g38
(I9
I18
tp1502
sg322
I00
sg323
I00
sg324
Nsg325
I00
sbag0
(g317
g2
Ntp1503
Rp1504
(dp1505
g38
(I9
I19
tp1506
sg322
I00
sg323
I00
sg324
Nsg325
I00
sbag0
(g317
g2
Ntp1507
Rp1508
(dp1509
g38
(I9
I20
tp1510
sg322
I00
sg323
I00
sg324
Nsg325
I00
sbag0
(g317
g2
Ntp1511
Rp1512
(dp1513
g38
(I9
I21
tp1514
sg322
I00
sg323
I00
sg324
Nsg325
I00
sbag0
(g317
g2
Ntp1515
Rp1516
(dp1517
g38
(I9
I22
tp1518
sg322
I00
sg323
I00
sg324
Nsg325
I00
sbag0
(g317
g2
Ntp1519
Rp1520
(dp1521
g38
(I9
I23
tp1522
sg322
I00
sg323
I00
sg324
Nsg325
I00
sbag0
(g317
g2
Ntp1523
Rp1524
(dp1525
g38
(I9
I24
tp1526
sg322
I00
sg323
I00
sg324
Nsg325
I00
sbag0
(g317
g2
Ntp1527
Rp1528
(dp1529
g38
(I9
I25
tp1530
sg322
I00
sg323
I00
sg324
g299
sg325
I00
sbag0
(g317
g2
Ntp1531
Rp1532
(dp1533
g38
(I9
I26
tp1534
sg322
I00
sg323
I00
sg324
Nsg325
I00
sbag0
(g317
g2
Ntp1535
Rp1536
(dp1537
g38
(I9
I27
tp1538
sg322
I00
sg323
I00
sg324
g180
sg325
I00
sbag0
(g317
g2
Ntp1539
Rp1540
(dp1541
g38
(I9
I28
tp1542
sg322
I00
sg323
I00
sg324
Nsg325
I00
sbag0
(g317
g2
Ntp1543
Rp1544
(dp1545
g38
(I9
I29
tp1546
sg322
I00
sg323
I00
sg324
Nsg325
I00
sbaa(lp1547
g0
(g317
g2
Ntp1548
Rp1549
(dp1550
g38
(I10
I0
tp1551
sg322
I00
sg323
I00
sg324
Nsg325
I00
sbag0
(g317
g2
Ntp1552
Rp1553
(dp1554
g38
(I10
I1
tp1555
sg322
I00
sg323
I00
sg324
Nsg325
I00
sbag0
(g317
g2
Ntp1556
Rp1557
(dp1558
g38
(I10
I2
tp1559
sg322
I00
sg323
I00
sg324
Nsg325
I00
sbag0
(g317
g2
Ntp1560
Rp1561
(dp1562
g38
(I10
I3
tp1563
sg322
I00
sg323
I00
sg324
(iCoral
Coral
p1564
(dp1565
g18
(I242
I186
I111
tp1566
sbsg325
I01
sbag0
(g317
g2
Ntp1567
Rp1568
(dp1569
g38
(I10
I4
tp1570
sg322
I00
sg323
I00
sg324
Nsg325
I00
sbag0
(g317
g2
Ntp1571
Rp1572
(dp1573
g38
(I10
I5
tp1574
sg322
I00
sg323
I00
sg324
(iCoral
Coral
p1575
(dp1576
g18
g1566
sbsg325
I01
sbag0
(g317
g2
Ntp1577
Rp1578
(dp1579
g38
(I10
I6
tp1580
sg322
I00
sg323
I00
sg324
Nsg325
I00
sbag0
(g317
g2
Ntp1581
Rp1582
(dp1583
g38
(I10
I7
tp1584
sg322
I00
sg323
I00
sg324
Nsg325
I00
sbag0
(g317
g2
Ntp1585
Rp1586
(dp1587
g38
(I10
I8
tp1588
sg322
I00
sg323
I00
sg324
Nsg325
I00
sbag0
(g317
g2
Ntp1589
Rp1590
(dp1591
g38
(I10
I9
tp1592
sg322
I00
sg323
I00
sg324
Nsg325
I00
sbag0
(g317
g2
Ntp1593
Rp1594
(dp1595
g38
(I10
I10
tp1596
sg322
I00
sg323
I00
sg324
Nsg325
I00
sbag0
(g317
g2
Ntp1597
Rp1598
(dp1599
g38
(I10
I11
tp1600
sg322
I00
sg323
I00
sg324
Nsg325
I00
sbag0
(g317
g2
Ntp1601
Rp1602
(dp1603
g38
(I10
I12
tp1604
sg322
I00
sg323
I00
sg324
Nsg325
I00
sbag0
(g317
g2
Ntp1605
Rp1606
(dp1607
g38
(I10
I13
tp1608
sg322
I00
sg323
I00
sg324
Nsg325
I00
sbag0
(g317
g2
Ntp1609
Rp1610
(dp1611
g38
(I10
I14
tp1612
sg322
I00
sg323
I00
sg324
Nsg325
I00
sbag0
(g317
g2
Ntp1613
Rp1614
(dp1615
g38
(I10
I15
tp1616
sg322
I00
sg323
I00
sg324
Nsg325
I00
sbag0
(g317
g2
Ntp1617
Rp1618
(dp1619
g38
(I10
I16
tp1620
sg322
I00
sg323
I00
sg324
Nsg325
I00
sbag0
(g317
g2
Ntp1621
Rp1622
(dp1623
g38
(I10
I17
tp1624
sg322
I00
sg323
I00
sg324
(iCoral
Coral
p1625
(dp1626
g18
g1566
sbsg325
I01
sbag0
(g317
g2
Ntp1627
Rp1628
(dp1629
g38
(I10
I18
tp1630
sg322
I00
sg323
I00
sg324
Nsg325
I00
sbag0
(g317
g2
Ntp1631
Rp1632
(dp1633
g38
(I10
I19
tp1634
sg322
I00
sg323
I00
sg324
Nsg325
I00
sbag0
(g317
g2
Ntp1635
Rp1636
(dp1637
g38
(I10
I20
tp1638
sg322
I00
sg323
I00
sg324
Nsg325
I00
sbag0
(g317
g2
Ntp1639
Rp1640
(dp1641
g38
(I10
I21
tp1642
sg322
I00
sg323
I00
sg324
Nsg325
I00
sbag0
(g317
g2
Ntp1643
Rp1644
(dp1645
g38
(I10
I22
tp1646
sg322
I00
sg323
I00
sg324
(iCoral
Coral
p1647
(dp1648
g18
g1566
sbsg325
I01
sbag0
(g317
g2
Ntp1649
Rp1650
(dp1651
g38
(I10
I23
tp1652
sg322
I00
sg323
I00
sg324
Nsg325
I00
sbag0
(g317
g2
Ntp1653
Rp1654
(dp1655
g38
(I10
I24
tp1656
sg322
I00
sg323
I00
sg324
Nsg325
I00
sbag0
(g317
g2
Ntp1657
Rp1658
(dp1659
g38
(I10
I25
tp1660
sg322
I00
sg323
I00
sg324
Nsg325
I00
sbag0
(g317
g2
Ntp1661
Rp1662
(dp1663
g38
(I10
I26
tp1664
sg322
I00
sg323
I00
sg324
Nsg325
I00
sbag0
(g317
g2
Ntp1665
Rp1666
(dp1667
g38
(I10
I27
tp1668
sg322
I00
sg323
I00
sg324
g180
sg325
I00
sbag0
(g317
g2
Ntp1669
Rp1670
(dp1671
g38
(I10
I28
tp1672
sg322
I00
sg323
I00
sg324
Nsg325
I00
sbag0
(g317
g2
Ntp1673
Rp1674
(dp1675
g38
(I10
I29
tp1676
sg322
I00
sg323
I00
sg324
Nsg325
I00
sbaa(lp1677
g0
(g317
g2
Ntp1678
Rp1679
(dp1680
g38
(I11
I0
tp1681
sg322
I00
sg323
I00
sg324
Nsg325
I00
sbag0
(g317
g2
Ntp1682
Rp1683
(dp1684
g38
(I11
I1
tp1685
sg322
I00
sg323
I00
sg324
Nsg325
I00
sbag0
(g317
g2
Ntp1686
Rp1687
(dp1688
g38
(I11
I2
tp1689
sg322
I00
sg323
I00
sg324
Nsg325
I00
sbag0
(g317
g2
Ntp1690
Rp1691
(dp1692
g38
(I11
I3
tp1693
sg322
I00
sg323
I00
sg324
Nsg325
I00
sbag0
(g317
g2
Ntp1694
Rp1695
(dp1696
g38
(I11
I4
tp1697
sg322
I00
sg323
I00
sg324
Nsg325
I00
sbag0
(g317
g2
Ntp1698
Rp1699
(dp1700
g38
(I11
I5
tp1701
sg322
I00
sg323
I00
sg324
Nsg325
I00
sbag0
(g317
g2
Ntp1702
Rp1703
(dp1704
g38
(I11
I6
tp1705
sg322
I00
sg323
I00
sg324
Nsg325
I00
sbag0
(g317
g2
Ntp1706
Rp1707
(dp1708
g38
(I11
I7
tp1709
sg322
I00
sg323
I00
sg324
Nsg325
I00
sbag0
(g317
g2
Ntp1710
Rp1711
(dp1712
g38
(I11
I8
tp1713
sg322
I00
sg323
I00
sg324
Nsg325
I00
sbag0
(g317
g2
Ntp1714
Rp1715
(dp1716
g38
(I11
I9
tp1717
sg322
I00
sg323
I00
sg324
Nsg325
I00
sbag0
(g317
g2
Ntp1718
Rp1719
(dp1720
g38
(I11
I10
tp1721
sg322
I00
sg323
I00
sg324
Nsg325
I00
sbag0
(g317
g2
Ntp1722
Rp1723
(dp1724
g38
(I11
I11
tp1725
sg322
I00
sg323
I00
sg324
Nsg325
I00
sbag0
(g317
g2
Ntp1726
Rp1727
(dp1728
g38
(I11
I12
tp1729
sg322
I00
sg323
I00
sg324
Nsg325
I00
sbag0
(g317
g2
Ntp1730
Rp1731
(dp1732
g38
(I11
I13
tp1733
sg322
I00
sg323
I00
sg324
Nsg325
I00
sbag0
(g317
g2
Ntp1734
Rp1735
(dp1736
g38
(I11
I14
tp1737
sg322
I00
sg323
I00
sg324
Nsg325
I00
sbag0
(g317
g2
Ntp1738
Rp1739
(dp1740
g38
(I11
I15
tp1741
sg322
I00
sg323
I00
sg324
Nsg325
I00
sbag0
(g317
g2
Ntp1742
Rp1743
(dp1744
g38
(I11
I16
tp1745
sg322
I00
sg323
I00
sg324
Nsg325
I00
sbag0
(g317
g2
Ntp1746
Rp1747
(dp1748
g38
(I11
I17
tp1749
sg322
I00
sg323
I00
sg324
Nsg325
I00
sbag0
(g317
g2
Ntp1750
Rp1751
(dp1752
g38
(I11
I18
tp1753
sg322
I00
sg323
I00
sg324
Nsg325
I00
sbag0
(g317
g2
Ntp1754
Rp1755
(dp1756
g38
(I11
I19
tp1757
sg322
I00
sg323
I00
sg324
Nsg325
I00
sbag0
(g317
g2
Ntp1758
Rp1759
(dp1760
g38
(I11
I20
tp1761
sg322
I00
sg323
I00
sg324
Nsg325
I00
sbag0
(g317
g2
Ntp1762
Rp1763
(dp1764
g38
(I11
I21
tp1765
sg322
I00
sg323
I00
sg324
Nsg325
I00
sbag0
(g317
g2
Ntp1766
Rp1767
(dp1768
g38
(I11
I22
tp1769
sg322
I00
sg323
I00
sg324
Nsg325
I00
sbag0
(g317
g2
Ntp1770
Rp1771
(dp1772
g38
(I11
I23
tp1773
sg322
I00
sg323
I00
sg324
Nsg325
I00
sbag0
(g317
g2
Ntp1774
Rp1775
(dp1776
g38
(I11
I24
tp1777
sg322
I00
sg323
I00
sg324
Nsg325
I00
sbag0
(g317
g2
Ntp1778
Rp1779
(dp1780
g38
(I11
I25
tp1781
sg322
I00
sg323
I00
sg324
Nsg325
I00
sbag0
(g317
g2
Ntp1782
Rp1783
(dp1784
g38
(I11
I26
tp1785
sg322
I00
sg323
I00
sg324
Nsg325
I00
sbag0
(g317
g2
Ntp1786
Rp1787
(dp1788
g38
(I11
I27
tp1789
sg322
I00
sg323
I00
sg324
g180
sg325
I00
sbag0
(g317
g2
Ntp1790
Rp1791
(dp1792
g38
(I11
I28
tp1793
sg322
I00
sg323
I00
sg324
Nsg325
I00
sbag0
(g317
g2
Ntp1794
Rp1795
(dp1796
g38
(I11
I29
tp1797
sg322
I00
sg323
I00
sg324
Nsg325
I00
sbaa(lp1798
g0
(g317
g2
Ntp1799
Rp1800
(dp1801
g38
(I12
I0
tp1802
sg322
I00
sg323
I00
sg324
Nsg325
I00
sbag0
(g317
g2
Ntp1803
Rp1804
(dp1805
g38
(I12
I1
tp1806
sg322
I00
sg323
I00
sg324
Nsg325
I00
sbag0
(g317
g2
Ntp1807
Rp1808
(dp1809
g38
(I12
I2
tp1810
sg322
I00
sg323
I00
sg324
Nsg325
I00
sbag0
(g317
g2
Ntp1811
Rp1812
(dp1813
g38
(I12
I3
tp1814
sg322
I00
sg323
I00
sg324
Nsg325
I00
sbag0
(g317
g2
Ntp1815
Rp1816
(dp1817
g38
(I12
I4
tp1818
sg322
I00
sg323
I00
sg324
Nsg325
I00
sbag0
(g317
g2
Ntp1819
Rp1820
(dp1821
g38
(I12
I5
tp1822
sg322
I00
sg323
I00
sg324
(iCoral
Coral
p1823
(dp1824
g18
g1566
sbsg325
I01
sbag0
(g317
g2
Ntp1825
Rp1826
(dp1827
g38
(I12
I6
tp1828
sg322
I00
sg323
I00
sg324
Nsg325
I00
sbag0
(g317
g2
Ntp1829
Rp1830
(dp1831
g38
(I12
I7
tp1832
sg322
I00
sg323
I00
sg324
Nsg325
I00
sbag0
(g317
g2
Ntp1833
Rp1834
(dp1835
g38
(I12
I8
tp1836
sg322
I00
sg323
I00
sg324
Nsg325
I00
sbag0
(g317
g2
Ntp1837
Rp1838
(dp1839
g38
(I12
I9
tp1840
sg322
I00
sg323
I00
sg324
Nsg325
I00
sbag0
(g317
g2
Ntp1841
Rp1842
(dp1843
g38
(I12
I10
tp1844
sg322
I00
sg323
I00
sg324
Nsg325
I00
sbag0
(g317
g2
Ntp1845
Rp1846
(dp1847
g38
(I12
I11
tp1848
sg322
I00
sg323
I00
sg324
Nsg325
I00
sbag0
(g317
g2
Ntp1849
Rp1850
(dp1851
g38
(I12
I12
tp1852
sg322
I00
sg323
I00
sg324
Nsg325
I00
sbag0
(g317
g2
Ntp1853
Rp1854
(dp1855
g38
(I12
I13
tp1856
sg322
I00
sg323
I00
sg324
Nsg325
I00
sbag0
(g317
g2
Ntp1857
Rp1858
(dp1859
g38
(I12
I14
tp1860
sg322
I00
sg323
I00
sg324
Nsg325
I00
sbag0
(g317
g2
Ntp1861
Rp1862
(dp1863
g38
(I12
I15
tp1864
sg322
I00
sg323
I00
sg324
Nsg325
I00
sbag0
(g317
g2
Ntp1865
Rp1866
(dp1867
g38
(I12
I16
tp1868
sg322
I00
sg323
I00
sg324
Nsg325
I00
sbag0
(g317
g2
Ntp1869
Rp1870
(dp1871
g38
(I12
I17
tp1872
sg322
I00
sg323
I00
sg324
Nsg325
I00
sbag0
(g317
g2
Ntp1873
Rp1874
(dp1875
g38
(I12
I18
tp1876
sg322
I00
sg323
I00
sg324
Nsg325
I00
sbag0
(g317
g2
Ntp1877
Rp1878
(dp1879
g38
(I12
I19
tp1880
sg322
I00
sg323
I00
sg324
(iCoral
Coral
p1881
(dp1882
g18
g1566
sbsg325
I01
sbag0
(g317
g2
Ntp1883
Rp1884
(dp1885
g38
(I12
I20
tp1886
sg322
I00
sg323
I00
sg324
Nsg325
I00
sbag0
(g317
g2
Ntp1887
Rp1888
(dp1889
g38
(I12
I21
tp1890
sg322
I00
sg323
I00
sg324
Nsg325
I00
sbag0
(g317
g2
Ntp1891
Rp1892
(dp1893
g38
(I12
I22
tp1894
sg322
I00
sg323
I00
sg324
Nsg325
I00
sbag0
(g317
g2
Ntp1895
Rp1896
(dp1897
g38
(I12
I23
tp1898
sg322
I00
sg323
I00
sg324
Nsg325
I00
sbag0
(g317
g2
Ntp1899
Rp1900
(dp1901
g38
(I12
I24
tp1902
sg322
I00
sg323
I00
sg324
Nsg325
I00
sbag0
(g317
g2
Ntp1903
Rp1904
(dp1905
g38
(I12
I25
tp1906
sg322
I00
sg323
I00
sg324
Nsg325
I00
sbag0
(g317
g2
Ntp1907
Rp1908
(dp1909
g38
(I12
I26
tp1910
sg322
I00
sg323
I00
sg324
(iCoral
Coral
p1911
(dp1912
g18
g1566
sbsg325
I01
sbag0
(g317
g2
Ntp1913
Rp1914
(dp1915
g38
(I12
I27
tp1916
sg322
I00
sg323
I00
sg324
g180
sg325
I01
sbag0
(g317
g2
Ntp1917
Rp1918
(dp1919
g38
(I12
I28
tp1920
sg322
I00
sg323
I00
sg324
Nsg325
I01
sbag0
(g317
g2
Ntp1921
Rp1922
(dp1923
g38
(I12
I29
tp1924
sg322
I00
sg323
I00
sg324
Nsg325
I01
sbaa(lp1925
g0
(g317
g2
Ntp1926
Rp1927
(dp1928
g38
(I13
I0
tp1929
sg322
I00
sg323
I00
sg324
Nsg325
I00
sbag0
(g317
g2
Ntp1930
Rp1931
(dp1932
g38
(I13
I1
tp1933
sg322
I00
sg323
I00
sg324
Nsg325
I00
sbag0
(g317
g2
Ntp1934
Rp1935
(dp1936
g38
(I13
I2
tp1937
sg322
I00
sg323
I00
sg324
Nsg325
I00
sbag0
(g317
g2
Ntp1938
Rp1939
(dp1940
g38
(I13
I3
tp1941
sg322
I00
sg323
I00
sg324
Nsg325
I00
sbag0
(g317
g2
Ntp1942
Rp1943
(dp1944
g38
(I13
I4
tp1945
sg322
I00
sg323
I00
sg324
(iCoral
Coral
p1946
(dp1947
g18
g1566
sbsg325
I01
sbag0
(g317
g2
Ntp1948
Rp1949
(dp1950
g38
(I13
I5
tp1951
sg322
I00
sg323
I00
sg324
Nsg325
I00
sbag0
(g317
g2
Ntp1952
Rp1953
(dp1954
g38
(I13
I6
tp1955
sg322
I00
sg323
I00
sg324
(iCoral
Coral
p1956
(dp1957
g18
g1566
sbsg325
I01
sbag0
(g317
g2
Ntp1958
Rp1959
(dp1960
g38
(I13
I7
tp1961
sg322
I00
sg323
I00
sg324
Nsg325
I00
sbag0
(g317
g2
Ntp1962
Rp1963
(dp1964
g38
(I13
I8
tp1965
sg322
I00
sg323
I00
sg324
(iCoral
Coral
p1966
(dp1967
g18
g1566
sbsg325
I01
sbag0
(g317
g2
Ntp1968
Rp1969
(dp1970
g38
(I13
I9
tp1971
sg322
I00
sg323
I00
sg324
Nsg325
I00
sbag0
(g317
g2
Ntp1972
Rp1973
(dp1974
g38
(I13
I10
tp1975
sg322
I00
sg323
I00
sg324
Nsg325
I00
sbag0
(g317
g2
Ntp1976
Rp1977
(dp1978
g38
(I13
I11
tp1979
sg322
I00
sg323
I00
sg324
Nsg325
I00
sbag0
(g317
g2
Ntp1980
Rp1981
(dp1982
g38
(I13
I12
tp1983
sg322
I00
sg323
I00
sg324
Nsg325
I00
sbag0
(g317
g2
Ntp1984
Rp1985
(dp1986
g38
(I13
I13
tp1987
sg322
I00
sg323
I00
sg324
Nsg325
I00
sbag0
(g317
g2
Ntp1988
Rp1989
(dp1990
g38
(I13
I14
tp1991
sg322
I00
sg323
I00
sg324
Nsg325
I00
sbag0
(g317
g2
Ntp1992
Rp1993
(dp1994
g38
(I13
I15
tp1995
sg322
I00
sg323
I00
sg324
Nsg325
I00
sbag0
(g317
g2
Ntp1996
Rp1997
(dp1998
g38
(I13
I16
tp1999
sg322
I00
sg323
I00
sg324
Nsg325
I00
sbag0
(g317
g2
Ntp2000
Rp2001
(dp2002
g38
(I13
I17
tp2003
sg322
I00
sg323
I00
sg324
(iCoral
Coral
p2004
(dp2005
g18
g1566
sbsg325
I01
sbag0
(g317
g2
Ntp2006
Rp2007
(dp2008
g38
(I13
I18
tp2009
sg322
I00
sg323
I00
sg324
Nsg325
I00
sbag0
(g317
g2
Ntp2010
Rp2011
(dp2012
g38
(I13
I19
tp2013
sg322
I00
sg323
I00
sg324
Nsg325
I00
sbag0
(g317
g2
Ntp2014
Rp2015
(dp2016
g38
(I13
I20
tp2017
sg322
I00
sg323
I00
sg324
Nsg325
I00
sbag0
(g317
g2
Ntp2018
Rp2019
(dp2020
g38
(I13
I21
tp2021
sg322
I00
sg323
I00
sg324
Nsg325
I00
sbag0
(g317
g2
Ntp2022
Rp2023
(dp2024
g38
(I13
I22
tp2025
sg322
I00
sg323
I00
sg324
Nsg325
I00
sbag0
(g317
g2
Ntp2026
Rp2027
(dp2028
g38
(I13
I23
tp2029
sg322
I00
sg323
I00
sg324
Nsg325
I00
sbag0
(g317
g2
Ntp2030
Rp2031
(dp2032
g38
(I13
I24
tp2033
sg322
I00
sg323
I00
sg324
Nsg325
I00
sbag0
(g317
g2
Ntp2034
Rp2035
(dp2036
g38
(I13
I25
tp2037
sg322
I00
sg323
I00
sg324
Nsg325
I00
sbag0
(g317
g2
Ntp2038
Rp2039
(dp2040
g38
(I13
I26
tp2041
sg322
I00
sg323
I00
sg324
Nsg325
I01
sbag0
(g317
g2
Ntp2042
Rp2043
(dp2044
g38
(I13
I27
tp2045
sg322
I00
sg323
I00
sg324
g180
sg325
I01
sbag0
(g317
g2
Ntp2046
Rp2047
(dp2048
g38
(I13
I28
tp2049
sg322
I00
sg323
I00
sg324
Nsg325
I01
sbag0
(g317
g2
Ntp2050
Rp2051
(dp2052
g38
(I13
I29
tp2053
sg322
I00
sg323
I00
sg324
Nsg325
I01
sbaa(lp2054
g0
(g317
g2
Ntp2055
Rp2056
(dp2057
g38
(I14
I0
tp2058
sg322
I00
sg323
I00
sg324
Nsg325
I00
sbag0
(g317
g2
Ntp2059
Rp2060
(dp2061
g38
(I14
I1
tp2062
sg322
I00
sg323
I00
sg324
Nsg325
I00
sbag0
(g317
g2
Ntp2063
Rp2064
(dp2065
g38
(I14
I2
tp2066
sg322
I00
sg323
I00
sg324
Nsg325
I00
sbag0
(g317
g2
Ntp2067
Rp2068
(dp2069
g38
(I14
I3
tp2070
sg322
I00
sg323
I00
sg324
(iCoral
Coral
p2071
(dp2072
g18
g1566
sbsg325
I01
sbag0
(g317
g2
Ntp2073
Rp2074
(dp2075
g38
(I14
I4
tp2076
sg322
I00
sg323
I00
sg324
Nsg325
I00
sbag0
(g317
g2
Ntp2077
Rp2078
(dp2079
g38
(I14
I5
tp2080
sg322
I00
sg323
I00
sg324
Nsg325
I00
sbag0
(g317
g2
Ntp2081
Rp2082
(dp2083
g38
(I14
I6
tp2084
sg322
I00
sg323
I00
sg324
Nsg325
I00
sbag0
(g317
g2
Ntp2085
Rp2086
(dp2087
g38
(I14
I7
tp2088
sg322
I00
sg323
I00
sg324
Nsg325
I00
sbag0
(g317
g2
Ntp2089
Rp2090
(dp2091
g38
(I14
I8
tp2092
sg322
I00
sg323
I00
sg324
Nsg325
I00
sbag0
(g317
g2
Ntp2093
Rp2094
(dp2095
g38
(I14
I9
tp2096
sg322
I00
sg323
I00
sg324
Nsg325
I00
sbag0
(g317
g2
Ntp2097
Rp2098
(dp2099
g38
(I14
I10
tp2100
sg322
I00
sg323
I00
sg324
Nsg325
I00
sbag0
(g317
g2
Ntp2101
Rp2102
(dp2103
g38
(I14
I11
tp2104
sg322
I00
sg323
I00
sg324
Nsg325
I00
sbag0
(g317
g2
Ntp2105
Rp2106
(dp2107
g38
(I14
I12
tp2108
sg322
I00
sg323
I00
sg324
Nsg325
I00
sbag0
(g317
g2
Ntp2109
Rp2110
(dp2111
g38
(I14
I13
tp2112
sg322
I00
sg323
I00
sg324
Nsg325
I00
sbag0
(g317
g2
Ntp2113
Rp2114
(dp2115
g38
(I14
I14
tp2116
sg322
I00
sg323
I00
sg324
Nsg325
I00
sbag0
(g317
g2
Ntp2117
Rp2118
(dp2119
g38
(I14
I15
tp2120
sg322
I00
sg323
I00
sg324
Nsg325
I00
sbag0
(g317
g2
Ntp2121
Rp2122
(dp2123
g38
(I14
I16
tp2124
sg322
I00
sg323
I00
sg324
Nsg325
I00
sbag0
(g317
g2
Ntp2125
Rp2126
(dp2127
g38
(I14
I17
tp2128
sg322
I00
sg323
I00
sg324
Nsg325
I00
sbag0
(g317
g2
Ntp2129
Rp2130
(dp2131
g38
(I14
I18
tp2132
sg322
I00
sg323
I00
sg324
Nsg325
I00
sbag0
(g317
g2
Ntp2133
Rp2134
(dp2135
g38
(I14
I19
tp2136
sg322
I00
sg323
I00
sg324
Nsg325
I00
sbag0
(g317
g2
Ntp2137
Rp2138
(dp2139
g38
(I14
I20
tp2140
sg322
I00
sg323
I00
sg324
Nsg325
I00
sbag0
(g317
g2
Ntp2141
Rp2142
(dp2143
g38
(I14
I21
tp2144
sg322
I00
sg323
I00
sg324
Nsg325
I00
sbag0
(g317
g2
Ntp2145
Rp2146
(dp2147
g38
(I14
I22
tp2148
sg322
I00
sg323
I00
sg324
Nsg325
I00
sbag0
(g317
g2
Ntp2149
Rp2150
(dp2151
g38
(I14
I23
tp2152
sg322
I00
sg323
I00
sg324
Nsg325
I00
sbag0
(g317
g2
Ntp2153
Rp2154
(dp2155
g38
(I14
I24
tp2156
sg322
I00
sg323
I00
sg324
Nsg325
I00
sbag0
(g317
g2
Ntp2157
Rp2158
(dp2159
g38
(I14
I25
tp2160
sg322
I00
sg323
I00
sg324
Nsg325
I00
sbag0
(g317
g2
Ntp2161
Rp2162
(dp2163
g38
(I14
I26
tp2164
sg322
I00
sg323
I00
sg324
Nsg325
I01
sbag0
(g317
g2
Ntp2165
Rp2166
(dp2167
g38
(I14
I27
tp2168
sg322
I00
sg323
I00
sg324
Nsg325
I01
sbag0
(g317
g2
Ntp2169
Rp2170
(dp2171
g38
(I14
I28
tp2172
sg322
I00
sg323
I00
sg324
Nsg325
I01
sbag0
(g317
g2
Ntp2173
Rp2174
(dp2175
g38
(I14
I29
tp2176
sg322
I00
sg323
I00
sg324
Nsg325
I01
sbaa(lp2177
g0
(g317
g2
Ntp2178
Rp2179
(dp2180
g38
(I15
I0
tp2181
sg322
I00
sg323
I00
sg324
Nsg325
I00
sbag0
(g317
g2
Ntp2182
Rp2183
(dp2184
g38
(I15
I1
tp2185
sg322
I00
sg323
I00
sg324
Nsg325
I00
sbag0
(g317
g2
Ntp2186
Rp2187
(dp2188
g38
(I15
I2
tp2189
sg322
I00
sg323
I00
sg324
Nsg325
I00
sbag0
(g317
g2
Ntp2190
Rp2191
(dp2192
g38
(I15
I3
tp2193
sg322
I00
sg323
I00
sg324
Nsg325
I00
sbag0
(g317
g2
Ntp2194
Rp2195
(dp2196
g38
(I15
I4
tp2197
sg322
I00
sg323
I00
sg324
Nsg325
I00
sbag0
(g317
g2
Ntp2198
Rp2199
(dp2200
g38
(I15
I5
tp2201
sg322
I00
sg323
I00
sg324
Nsg325
I00
sbag0
(g317
g2
Ntp2202
Rp2203
(dp2204
g38
(I15
I6
tp2205
sg322
I00
sg323
I00
sg324
Nsg325
I00
sbag0
(g317
g2
Ntp2206
Rp2207
(dp2208
g38
(I15
I7
tp2209
sg322
I00
sg323
I00
sg324
Nsg325
I00
sbag0
(g317
g2
Ntp2210
Rp2211
(dp2212
g38
(I15
I8
tp2213
sg322
I00
sg323
I00
sg324
Nsg325
I00
sbag0
(g317
g2
Ntp2214
Rp2215
(dp2216
g38
(I15
I9
tp2217
sg322
I00
sg323
I00
sg324
Nsg325
I00
sbag0
(g317
g2
Ntp2218
Rp2219
(dp2220
g38
(I15
I10
tp2221
sg322
I00
sg323
I00
sg324
Nsg325
I00
sbag0
(g317
g2
Ntp2222
Rp2223
(dp2224
g38
(I15
I11
tp2225
sg322
I00
sg323
I00
sg324
Nsg325
I00
sbag0
(g317
g2
Ntp2226
Rp2227
(dp2228
g38
(I15
I12
tp2229
sg322
I00
sg323
I00
sg324
(iCoral
Coral
p2230
(dp2231
g18
g1566
sbsg325
I01
sbag0
(g317
g2
Ntp2232
Rp2233
(dp2234
g38
(I15
I13
tp2235
sg322
I00
sg323
I00
sg324
Nsg325
I00
sbag0
(g317
g2
Ntp2236
Rp2237
(dp2238
g38
(I15
I14
tp2239
sg322
I00
sg323
I00
sg324
Nsg325
I00
sbag0
(g317
g2
Ntp2240
Rp2241
(dp2242
g38
(I15
I15
tp2243
sg322
I00
sg323
I00
sg324
Nsg325
I00
sbag0
(g317
g2
Ntp2244
Rp2245
(dp2246
g38
(I15
I16
tp2247
sg322
I00
sg323
I00
sg324
Nsg325
I00
sbag0
(g317
g2
Ntp2248
Rp2249
(dp2250
g38
(I15
I17
tp2251
sg322
I00
sg323
I00
sg324
Nsg325
I00
sbag0
(g317
g2
Ntp2252
Rp2253
(dp2254
g38
(I15
I18
tp2255
sg322
I00
sg323
I00
sg324
Nsg325
I00
sbag0
(g317
g2
Ntp2256
Rp2257
(dp2258
g38
(I15
I19
tp2259
sg322
I00
sg323
I00
sg324
Nsg325
I00
sbag0
(g317
g2
Ntp2260
Rp2261
(dp2262
g38
(I15
I20
tp2263
sg322
I00
sg323
I00
sg324
Nsg325
I00
sbag0
(g317
g2
Ntp2264
Rp2265
(dp2266
g38
(I15
I21
tp2267
sg322
I00
sg323
I00
sg324
Nsg325
I00
sbag0
(g317
g2
Ntp2268
Rp2269
(dp2270
g38
(I15
I22
tp2271
sg322
I00
sg323
I00
sg324
Nsg325
I00
sbag0
(g317
g2
Ntp2272
Rp2273
(dp2274
g38
(I15
I23
tp2275
sg322
I00
sg323
I00
sg324
Nsg325
I00
sbag0
(g317
g2
Ntp2276
Rp2277
(dp2278
g38
(I15
I24
tp2279
sg322
I00
sg323
I00
sg324
Nsg325
I00
sbag0
(g317
g2
Ntp2280
Rp2281
(dp2282
g38
(I15
I25
tp2283
sg322
I00
sg323
I00
sg324
Nsg325
I00
sbag0
(g317
g2
Ntp2284
Rp2285
(dp2286
g38
(I15
I26
tp2287
sg322
I00
sg323
I00
sg324
Nsg325
I01
sbag0
(g317
g2
Ntp2288
Rp2289
(dp2290
g38
(I15
I27
tp2291
sg322
I00
sg323
I00
sg324
Nsg325
I01
sbag0
(g317
g2
Ntp2292
Rp2293
(dp2294
g38
(I15
I28
tp2295
sg322
I00
sg323
I00
sg324
g167
sg325
I01
sbag0
(g317
g2
Ntp2296
Rp2297
(dp2298
g38
(I15
I29
tp2299
sg322
I00
sg323
I00
sg324
Nsg325
I01
sbaa(lp2300
g0
(g317
g2
Ntp2301
Rp2302
(dp2303
g38
(I16
I0
tp2304
sg322
I00
sg323
I00
sg324
Nsg325
I00
sbag0
(g317
g2
Ntp2305
Rp2306
(dp2307
g38
(I16
I1
tp2308
sg322
I00
sg323
I00
sg324
Nsg325
I00
sbag0
(g317
g2
Ntp2309
Rp2310
(dp2311
g38
(I16
I2
tp2312
sg322
I00
sg323
I00
sg324
Nsg325
I00
sbag0
(g317
g2
Ntp2313
Rp2314
(dp2315
g38
(I16
I3
tp2316
sg322
I00
sg323
I00
sg324
Nsg325
I00
sbag0
(g317
g2
Ntp2317
Rp2318
(dp2319
g38
(I16
I4
tp2320
sg322
I00
sg323
I00
sg324
Nsg325
I00
sbag0
(g317
g2
Ntp2321
Rp2322
(dp2323
g38
(I16
I5
tp2324
sg322
I00
sg323
I00
sg324
(iCoral
Coral
p2325
(dp2326
g18
g1566
sbsg325
I01
sbag0
(g317
g2
Ntp2327
Rp2328
(dp2329
g38
(I16
I6
tp2330
sg322
I00
sg323
I00
sg324
Nsg325
I00
sbag0
(g317
g2
Ntp2331
Rp2332
(dp2333
g38
(I16
I7
tp2334
sg322
I00
sg323
I00
sg324
Nsg325
I00
sbag0
(g317
g2
Ntp2335
Rp2336
(dp2337
g38
(I16
I8
tp2338
sg322
I00
sg323
I00
sg324
Nsg325
I00
sbag0
(g317
g2
Ntp2339
Rp2340
(dp2341
g38
(I16
I9
tp2342
sg322
I00
sg323
I00
sg324
Nsg325
I00
sbag0
(g317
g2
Ntp2343
Rp2344
(dp2345
g38
(I16
I10
tp2346
sg322
I00
sg323
I00
sg324
Nsg325
I00
sbag0
(g317
g2
Ntp2347
Rp2348
(dp2349
g38
(I16
I11
tp2350
sg322
I00
sg323
I00
sg324
Nsg325
I00
sbag0
(g317
g2
Ntp2351
Rp2352
(dp2353
g38
(I16
I12
tp2354
sg322
I00
sg323
I00
sg324
Nsg325
I00
sbag0
(g317
g2
Ntp2355
Rp2356
(dp2357
g38
(I16
I13
tp2358
sg322
I00
sg323
I00
sg324
Nsg325
I00
sbag0
(g317
g2
Ntp2359
Rp2360
(dp2361
g38
(I16
I14
tp2362
sg322
I00
sg323
I00
sg324
Nsg325
I00
sbag0
(g317
g2
Ntp2363
Rp2364
(dp2365
g38
(I16
I15
tp2366
sg322
I00
sg323
I00
sg324
Nsg325
I00
sbag0
(g317
g2
Ntp2367
Rp2368
(dp2369
g38
(I16
I16
tp2370
sg322
I00
sg323
I00
sg324
Nsg325
I00
sbag0
(g317
g2
Ntp2371
Rp2372
(dp2373
g38
(I16
I17
tp2374
sg322
I00
sg323
I00
sg324
Nsg325
I00
sbag0
(g317
g2
Ntp2375
Rp2376
(dp2377
g38
(I16
I18
tp2378
sg322
I00
sg323
I00
sg324
Nsg325
I00
sbag0
(g317
g2
Ntp2379
Rp2380
(dp2381
g38
(I16
I19
tp2382
sg322
I00
sg323
I00
sg324
Nsg325
I00
sbag0
(g317
g2
Ntp2383
Rp2384
(dp2385
g38
(I16
I20
tp2386
sg322
I00
sg323
I00
sg324
Nsg325
I00
sbag0
(g317
g2
Ntp2387
Rp2388
(dp2389
g38
(I16
I21
tp2390
sg322
I00
sg323
I00
sg324
Nsg325
I00
sbag0
(g317
g2
Ntp2391
Rp2392
(dp2393
g38
(I16
I22
tp2394
sg322
I00
sg323
I00
sg324
Nsg325
I00
sbag0
(g317
g2
Ntp2395
Rp2396
(dp2397
g38
(I16
I23
tp2398
sg322
I00
sg323
I00
sg324
Nsg325
I00
sbag0
(g317
g2
Ntp2399
Rp2400
(dp2401
g38
(I16
I24
tp2402
sg322
I00
sg323
I00
sg324
Nsg325
I00
sbag0
(g317
g2
Ntp2403
Rp2404
(dp2405
g38
(I16
I25
tp2406
sg322
I00
sg323
I00
sg324
Nsg325
I00
sbag0
(g317
g2
Ntp2407
Rp2408
(dp2409
g38
(I16
I26
tp2410
sg322
I00
sg323
I00
sg324
Nsg325
I01
sbag0
(g317
g2
Ntp2411
Rp2412
(dp2413
g38
(I16
I27
tp2414
sg322
I00
sg323
I00
sg324
Nsg325
I01
sbag0
(g317
g2
Ntp2415
Rp2416
(dp2417
g38
(I16
I28
tp2418
sg322
I00
sg323
I00
sg324
Nsg325
I01
sbag0
(g317
g2
Ntp2419
Rp2420
(dp2421
g38
(I16
I29
tp2422
sg322
I00
sg323
I00
sg324
Nsg325
I01
sbaa(lp2423
g0
(g317
g2
Ntp2424
Rp2425
(dp2426
g38
(I17
I0
tp2427
sg322
I00
sg323
I00
sg324
Nsg325
I00
sbag0
(g317
g2
Ntp2428
Rp2429
(dp2430
g38
(I17
I1
tp2431
sg322
I00
sg323
I00
sg324
Nsg325
I00
sbag0
(g317
g2
Ntp2432
Rp2433
(dp2434
g38
(I17
I2
tp2435
sg322
I00
sg323
I00
sg324
Nsg325
I00
sbag0
(g317
g2
Ntp2436
Rp2437
(dp2438
g38
(I17
I3
tp2439
sg322
I00
sg323
I00
sg324
(iCoral
Coral
p2440
(dp2441
g18
g1566
sbsg325
I01
sbag0
(g317
g2
Ntp2442
Rp2443
(dp2444
g38
(I17
I4
tp2445
sg322
I00
sg323
I00
sg324
Nsg325
I00
sbag0
(g317
g2
Ntp2446
Rp2447
(dp2448
g38
(I17
I5
tp2449
sg322
I00
sg323
I00
sg324
Nsg325
I00
sbag0
(g317
g2
Ntp2450
Rp2451
(dp2452
g38
(I17
I6
tp2453
sg322
I00
sg323
I00
sg324
Nsg325
I00
sbag0
(g317
g2
Ntp2454
Rp2455
(dp2456
g38
(I17
I7
tp2457
sg322
I00
sg323
I00
sg324
Nsg325
I00
sbag0
(g317
g2
Ntp2458
Rp2459
(dp2460
g38
(I17
I8
tp2461
sg322
I00
sg323
I00
sg324
Nsg325
I00
sbag0
(g317
g2
Ntp2462
Rp2463
(dp2464
g38
(I17
I9
tp2465
sg322
I00
sg323
I00
sg324
Nsg325
I00
sbag0
(g317
g2
Ntp2466
Rp2467
(dp2468
g38
(I17
I10
tp2469
sg322
I00
sg323
I00
sg324
Nsg325
I00
sbag0
(g317
g2
Ntp2470
Rp2471
(dp2472
g38
(I17
I11
tp2473
sg322
I00
sg323
I00
sg324
Nsg325
I00
sbag0
(g317
g2
Ntp2474
Rp2475
(dp2476
g38
(I17
I12
tp2477
sg322
I00
sg323
I00
sg324
Nsg325
I00
sbag0
(g317
g2
Ntp2478
Rp2479
(dp2480
g38
(I17
I13
tp2481
sg322
I00
sg323
I00
sg324
Nsg325
I00
sbag0
(g317
g2
Ntp2482
Rp2483
(dp2484
g38
(I17
I14
tp2485
sg322
I00
sg323
I00
sg324
Nsg325
I00
sbag0
(g317
g2
Ntp2486
Rp2487
(dp2488
g38
(I17
I15
tp2489
sg322
I00
sg323
I00
sg324
Nsg325
I00
sbag0
(g317
g2
Ntp2490
Rp2491
(dp2492
g38
(I17
I16
tp2493
sg322
I00
sg323
I00
sg324
Nsg325
I00
sbag0
(g317
g2
Ntp2494
Rp2495
(dp2496
g38
(I17
I17
tp2497
sg322
I00
sg323
I00
sg324
Nsg325
I00
sbag0
(g317
g2
Ntp2498
Rp2499
(dp2500
g38
(I17
I18
tp2501
sg322
I00
sg323
I00
sg324
(iCoral
Coral
p2502
(dp2503
g18
g1566
sbsg325
I01
sbag0
(g317
g2
Ntp2504
Rp2505
(dp2506
g38
(I17
I19
tp2507
sg322
I00
sg323
I00
sg324
Nsg325
I00
sbag0
(g317
g2
Ntp2508
Rp2509
(dp2510
g38
(I17
I20
tp2511
sg322
I00
sg323
I00
sg324
(iCoral
Coral
p2512
(dp2513
g18
g1566
sbsg325
I01
sbag0
(g317
g2
Ntp2514
Rp2515
(dp2516
g38
(I17
I21
tp2517
sg322
I00
sg323
I00
sg324
Nsg325
I00
sbag0
(g317
g2
Ntp2518
Rp2519
(dp2520
g38
(I17
I22
tp2521
sg322
I00
sg323
I00
sg324
Nsg325
I00
sbag0
(g317
g2
Ntp2522
Rp2523
(dp2524
g38
(I17
I23
tp2525
sg322
I00
sg323
I00
sg324
Nsg325
I00
sbag0
(g317
g2
Ntp2526
Rp2527
(dp2528
g38
(I17
I24
tp2529
sg322
I00
sg323
I00
sg324
Nsg325
I00
sbag0
(g317
g2
Ntp2530
Rp2531
(dp2532
g38
(I17
I25
tp2533
sg322
I00
sg323
I00
sg324
Nsg325
I00
sbag0
(g317
g2
Ntp2534
Rp2535
(dp2536
g38
(I17
I26
tp2537
sg322
I00
sg323
I00
sg324
Nsg325
I01
sbag0
(g317
g2
Ntp2538
Rp2539
(dp2540
g38
(I17
I27
tp2541
sg322
I00
sg323
I00
sg324
Nsg325
I01
sbag0
(g317
g2
Ntp2542
Rp2543
(dp2544
g38
(I17
I28
tp2545
sg322
I00
sg323
I00
sg324
Nsg325
I01
sbag0
(g317
g2
Ntp2546
Rp2547
(dp2548
g38
(I17
I29
tp2549
sg322
I00
sg323
I00
sg324
Nsg325
I01
sbaa(lp2550
g0
(g317
g2
Ntp2551
Rp2552
(dp2553
g38
(I18
I0
tp2554
sg322
I00
sg323
I00
sg324
Nsg325
I00
sbag0
(g317
g2
Ntp2555
Rp2556
(dp2557
g38
(I18
I1
tp2558
sg322
I00
sg323
I00
sg324
Nsg325
I00
sbag0
(g317
g2
Ntp2559
Rp2560
(dp2561
g38
(I18
I2
tp2562
sg322
I00
sg323
I00
sg324
Nsg325
I00
sbag0
(g317
g2
Ntp2563
Rp2564
(dp2565
g38
(I18
I3
tp2566
sg322
I00
sg323
I00
sg324
Nsg325
I00
sbag0
(g317
g2
Ntp2567
Rp2568
(dp2569
g38
(I18
I4
tp2570
sg322
I00
sg323
I00
sg324
Nsg325
I00
sbag0
(g317
g2
Ntp2571
Rp2572
(dp2573
g38
(I18
I5
tp2574
sg322
I00
sg323
I00
sg324
Nsg325
I00
sbag0
(g317
g2
Ntp2575
Rp2576
(dp2577
g38
(I18
I6
tp2578
sg322
I00
sg323
I00
sg324
Nsg325
I00
sbag0
(g317
g2
Ntp2579
Rp2580
(dp2581
g38
(I18
I7
tp2582
sg322
I00
sg323
I00
sg324
Nsg325
I00
sbag0
(g317
g2
Ntp2583
Rp2584
(dp2585
g38
(I18
I8
tp2586
sg322
I00
sg323
I00
sg324
Nsg325
I00
sbag0
(g317
g2
Ntp2587
Rp2588
(dp2589
g38
(I18
I9
tp2590
sg322
I00
sg323
I00
sg324
Nsg325
I00
sbag0
(g317
g2
Ntp2591
Rp2592
(dp2593
g38
(I18
I10
tp2594
sg322
I00
sg323
I00
sg324
Nsg325
I01
sbag0
(g317
g2
Ntp2595
Rp2596
(dp2597
g38
(I18
I11
tp2598
sg322
I00
sg323
I00
sg324
Nsg325
I01
sbag0
(g317
g2
Ntp2599
Rp2600
(dp2601
g38
(I18
I12
tp2602
sg322
I00
sg323
I00
sg324
Nsg325
I01
sbag0
(g317
g2
Ntp2603
Rp2604
(dp2605
g38
(I18
I13
tp2606
sg322
I00
sg323
I00
sg324
Nsg325
I00
sbag0
(g317
g2
Ntp2607
Rp2608
(dp2609
g38
(I18
I14
tp2610
sg322
I00
sg323
I00
sg324
Nsg325
I00
sbag0
(g317
g2
Ntp2611
Rp2612
(dp2613
g38
(I18
I15
tp2614
sg322
I00
sg323
I00
sg324
(iCoral
Coral
p2615
(dp2616
g18
g1566
sbsg325
I01
sbag0
(g317
g2
Ntp2617
Rp2618
(dp2619
g38
(I18
I16
tp2620
sg322
I00
sg323
I00
sg324
Nsg325
I00
sbag0
(g317
g2
Ntp2621
Rp2622
(dp2623
g38
(I18
I17
tp2624
sg322
I00
sg323
I00
sg324
Nsg325
I00
sbag0
(g317
g2
Ntp2625
Rp2626
(dp2627
g38
(I18
I18
tp2628
sg322
I00
sg323
I00
sg324
Nsg325
I00
sbag0
(g317
g2
Ntp2629
Rp2630
(dp2631
g38
(I18
I19
tp2632
sg322
I00
sg323
I00
sg324
Nsg325
I00
sbag0
(g317
g2
Ntp2633
Rp2634
(dp2635
g38
(I18
I20
tp2636
sg322
I00
sg323
I00
sg324
Nsg325
I00
sbag0
(g317
g2
Ntp2637
Rp2638
(dp2639
g38
(I18
I21
tp2640
sg322
I00
sg323
I00
sg324
Nsg325
I00
sbag0
(g317
g2
Ntp2641
Rp2642
(dp2643
g38
(I18
I22
tp2644
sg322
I00
sg323
I00
sg324
(iCoral
Coral
p2645
(dp2646
g18
g1566
sbsg325
I01
sbag0
(g317
g2
Ntp2647
Rp2648
(dp2649
g38
(I18
I23
tp2650
sg322
I00
sg323
I00
sg324
Nsg325
I00
sbag0
(g317
g2
Ntp2651
Rp2652
(dp2653
g38
(I18
I24
tp2654
sg322
I00
sg323
I00
sg324
Nsg325
I00
sbag0
(g317
g2
Ntp2655
Rp2656
(dp2657
g38
(I18
I25
tp2658
sg322
I00
sg323
I00
sg324
(iCoral
Coral
p2659
(dp2660
g18
g1566
sbsg325
I01
sbag0
(g317
g2
Ntp2661
Rp2662
(dp2663
g38
(I18
I26
tp2664
sg322
I00
sg323
I00
sg324
Nsg325
I00
sbag0
(g317
g2
Ntp2665
Rp2666
(dp2667
g38
(I18
I27
tp2668
sg322
I00
sg323
I00
sg324
Nsg325
I01
sbag0
(g317
g2
Ntp2669
Rp2670
(dp2671
g38
(I18
I28
tp2672
sg322
I00
sg323
I00
sg324
g13
sg325
I01
sbag0
(g317
g2
Ntp2673
Rp2674
(dp2675
g38
(I18
I29
tp2676
sg322
I00
sg323
I00
sg324
Nsg325
I01
sbaa(lp2677
g0
(g317
g2
Ntp2678
Rp2679
(dp2680
g38
(I19
I0
tp2681
sg322
I00
sg323
I00
sg324
Nsg325
I00
sbag0
(g317
g2
Ntp2682
Rp2683
(dp2684
g38
(I19
I1
tp2685
sg322
I00
sg323
I00
sg324
Nsg325
I00
sbag0
(g317
g2
Ntp2686
Rp2687
(dp2688
g38
(I19
I2
tp2689
sg322
I00
sg323
I00
sg324
Nsg325
I00
sbag0
(g317
g2
Ntp2690
Rp2691
(dp2692
g38
(I19
I3
tp2693
sg322
I00
sg323
I00
sg324
Nsg325
I00
sbag0
(g317
g2
Ntp2694
Rp2695
(dp2696
g38
(I19
I4
tp2697
sg322
I00
sg323
I00
sg324
Nsg325
I00
sbag0
(g317
g2
Ntp2698
Rp2699
(dp2700
g38
(I19
I5
tp2701
sg322
I00
sg323
I00
sg324
Nsg325
I00
sbag0
(g317
g2
Ntp2702
Rp2703
(dp2704
g38
(I19
I6
tp2705
sg322
I00
sg323
I00
sg324
Nsg325
I00
sbag0
(g317
g2
Ntp2706
Rp2707
(dp2708
g38
(I19
I7
tp2709
sg322
I00
sg323
I00
sg324
(iCoral
Coral
p2710
(dp2711
g18
g1566
sbsg325
I01
sbag0
(g317
g2
Ntp2712
Rp2713
(dp2714
g38
(I19
I8
tp2715
sg322
I00
sg323
I00
sg324
Nsg325
I00
sbag0
(g317
g2
Ntp2716
Rp2717
(dp2718
g38
(I19
I9
tp2719
sg322
I00
sg323
I00
sg324
Nsg325
I00
sbag0
(g317
g2
Ntp2720
Rp2721
(dp2722
g38
(I19
I10
tp2723
sg322
I00
sg323
I00
sg324
(iCoral
Coral
p2724
(dp2725
g18
g1566
sbsg325
I01
sbag0
(g317
g2
Ntp2726
Rp2727
(dp2728
g38
(I19
I11
tp2729
sg322
I00
sg323
I00
sg324
Nsg325
I01
sbag0
(g317
g2
Ntp2730
Rp2731
(dp2732
g38
(I19
I12
tp2733
sg322
I00
sg323
I00
sg324
(iCoral
Coral
p2734
(dp2735
g18
g1566
sbsg325
I01
sbag0
(g317
g2
Ntp2736
Rp2737
(dp2738
g38
(I19
I13
tp2739
sg322
I00
sg323
I00
sg324
Nsg325
I00
sbag0
(g317
g2
Ntp2740
Rp2741
(dp2742
g38
(I19
I14
tp2743
sg322
I00
sg323
I00
sg324
Nsg325
I00
sbag0
(g317
g2
Ntp2744
Rp2745
(dp2746
g38
(I19
I15
tp2747
sg322
I00
sg323
I00
sg324
Nsg325
I00
sbag0
(g317
g2
Ntp2748
Rp2749
(dp2750
g38
(I19
I16
tp2751
sg322
I00
sg323
I00
sg324
Nsg325
I00
sbag0
(g317
g2
Ntp2752
Rp2753
(dp2754
g38
(I19
I17
tp2755
sg322
I00
sg323
I00
sg324
Nsg325
I00
sbag0
(g317
g2
Ntp2756
Rp2757
(dp2758
g38
(I19
I18
tp2759
sg322
I00
sg323
I00
sg324
Nsg325
I00
sbag0
(g317
g2
Ntp2760
Rp2761
(dp2762
g38
(I19
I19
tp2763
sg322
I00
sg323
I00
sg324
Nsg325
I00
sbag0
(g317
g2
Ntp2764
Rp2765
(dp2766
g38
(I19
I20
tp2767
sg322
I00
sg323
I00
sg324
Nsg325
I00
sbag0
(g317
g2
Ntp2768
Rp2769
(dp2770
g38
(I19
I21
tp2771
sg322
I00
sg323
I00
sg324
Nsg325
I00
sbag0
(g317
g2
Ntp2772
Rp2773
(dp2774
g38
(I19
I22
tp2775
sg322
I00
sg323
I00
sg324
Nsg325
I00
sbag0
(g317
g2
Ntp2776
Rp2777
(dp2778
g38
(I19
I23
tp2779
sg322
I00
sg323
I00
sg324
Nsg325
I00
sbag0
(g317
g2
Ntp2780
Rp2781
(dp2782
g38
(I19
I24
tp2783
sg322
I00
sg323
I00
sg324
Nsg325
I00
sbag0
(g317
g2
Ntp2784
Rp2785
(dp2786
g38
(I19
I25
tp2787
sg322
I00
sg323
I00
sg324
Nsg325
I00
sbag0
(g317
g2
Ntp2788
Rp2789
(dp2790
g38
(I19
I26
tp2791
sg322
I00
sg323
I00
sg324
(iCoral
Coral
p2792
(dp2793
g18
g1566
sbsg325
I01
sbag0
(g317
g2
Ntp2794
Rp2795
(dp2796
g38
(I19
I27
tp2797
sg322
I00
sg323
I00
sg324
Nsg325
I01
sbag0
(g317
g2
Ntp2798
Rp2799
(dp2800
g38
(I19
I28
tp2801
sg322
I00
sg323
I00
sg324
g13
sg325
I01
sbag0
(g317
g2
Ntp2802
Rp2803
(dp2804
g38
(I19
I29
tp2805
sg322
I00
sg323
I00
sg324
Nsg325
I01
sbaa(lp2806
g0
(g317
g2
Ntp2807
Rp2808
(dp2809
g38
(I20
I0
tp2810
sg322
I00
sg323
I00
sg324
Nsg325
I00
sbag0
(g317
g2
Ntp2811
Rp2812
(dp2813
g38
(I20
I1
tp2814
sg322
I00
sg323
I00
sg324
Nsg325
I00
sbag0
(g317
g2
Ntp2815
Rp2816
(dp2817
g38
(I20
I2
tp2818
sg322
I00
sg323
I00
sg324
Nsg325
I00
sbag0
(g317
g2
Ntp2819
Rp2820
(dp2821
g38
(I20
I3
tp2822
sg322
I00
sg323
I00
sg324
Nsg325
I00
sbag0
(g317
g2
Ntp2823
Rp2824
(dp2825
g38
(I20
I4
tp2826
sg322
I00
sg323
I00
sg324
Nsg325
I00
sbag0
(g317
g2
Ntp2827
Rp2828
(dp2829
g38
(I20
I5
tp2830
sg322
I00
sg323
I00
sg324
Nsg325
I00
sbag0
(g317
g2
Ntp2831
Rp2832
(dp2833
g38
(I20
I6
tp2834
sg322
I00
sg323
I00
sg324
Nsg325
I00
sbag0
(g317
g2
Ntp2835
Rp2836
(dp2837
g38
(I20
I7
tp2838
sg322
I00
sg323
I00
sg324
Nsg325
I00
sbag0
(g317
g2
Ntp2839
Rp2840
(dp2841
g38
(I20
I8
tp2842
sg322
I00
sg323
I00
sg324
Nsg325
I00
sbag0
(g317
g2
Ntp2843
Rp2844
(dp2845
g38
(I20
I9
tp2846
sg322
I00
sg323
I00
sg324
Nsg325
I00
sbag0
(g317
g2
Ntp2847
Rp2848
(dp2849
g38
(I20
I10
tp2850
sg322
I00
sg323
I00
sg324
Nsg325
I01
sbag0
(g317
g2
Ntp2851
Rp2852
(dp2853
g38
(I20
I11
tp2854
sg322
I00
sg323
I00
sg324
Nsg325
I01
sbag0
(g317
g2
Ntp2855
Rp2856
(dp2857
g38
(I20
I12
tp2858
sg322
I00
sg323
I00
sg324
Nsg325
I01
sbag0
(g317
g2
Ntp2859
Rp2860
(dp2861
g38
(I20
I13
tp2862
sg322
I00
sg323
I00
sg324
Nsg325
I01
sbag0
(g317
g2
Ntp2863
Rp2864
(dp2865
g38
(I20
I14
tp2866
sg322
I00
sg323
I00
sg324
Nsg325
I01
sbag0
(g317
g2
Ntp2867
Rp2868
(dp2869
g38
(I20
I15
tp2870
sg322
I00
sg323
I00
sg324
Nsg325
I01
sbag0
(g317
g2
Ntp2871
Rp2872
(dp2873
g38
(I20
I16
tp2874
sg322
I00
sg323
I00
sg324
Nsg325
I00
sbag0
(g317
g2
Ntp2875
Rp2876
(dp2877
g38
(I20
I17
tp2878
sg322
I00
sg323
I00
sg324
Nsg325
I00
sbag0
(g317
g2
Ntp2879
Rp2880
(dp2881
g38
(I20
I18
tp2882
sg322
I00
sg323
I00
sg324
Nsg325
I00
sbag0
(g317
g2
Ntp2883
Rp2884
(dp2885
g38
(I20
I19
tp2886
sg322
I00
sg323
I00
sg324
Nsg325
I00
sbag0
(g317
g2
Ntp2887
Rp2888
(dp2889
g38
(I20
I20
tp2890
sg322
I00
sg323
I00
sg324
Nsg325
I00
sbag0
(g317
g2
Ntp2891
Rp2892
(dp2893
g38
(I20
I21
tp2894
sg322
I00
sg323
I00
sg324
Nsg325
I00
sbag0
(g317
g2
Ntp2895
Rp2896
(dp2897
g38
(I20
I22
tp2898
sg322
I00
sg323
I00
sg324
Nsg325
I00
sbag0
(g317
g2
Ntp2899
Rp2900
(dp2901
g38
(I20
I23
tp2902
sg322
I00
sg323
I00
sg324
Nsg325
I00
sbag0
(g317
g2
Ntp2903
Rp2904
(dp2905
g38
(I20
I24
tp2906
sg322
I00
sg323
I00
sg324
Nsg325
I00
sbag0
(g317
g2
Ntp2907
Rp2908
(dp2909
g38
(I20
I25
tp2910
sg322
I00
sg323
I00
sg324
Nsg325
I00
sbag0
(g317
g2
Ntp2911
Rp2912
(dp2913
g38
(I20
I26
tp2914
sg322
I00
sg323
I00
sg324
Nsg325
I00
sbag0
(g317
g2
Ntp2915
Rp2916
(dp2917
g38
(I20
I27
tp2918
sg322
I00
sg323
I00
sg324
Nsg325
I01
sbag0
(g317
g2
Ntp2919
Rp2920
(dp2921
g38
(I20
I28
tp2922
sg322
I00
sg323
I00
sg324
g13
sg325
I01
sbag0
(g317
g2
Ntp2923
Rp2924
(dp2925
g38
(I20
I29
tp2926
sg322
I00
sg323
I00
sg324
Nsg325
I01
sbaa(lp2927
g0
(g317
g2
Ntp2928
Rp2929
(dp2930
g38
(I21
I0
tp2931
sg322
I00
sg323
I00
sg324
Nsg325
I00
sbag0
(g317
g2
Ntp2932
Rp2933
(dp2934
g38
(I21
I1
tp2935
sg322
I00
sg323
I00
sg324
Nsg325
I00
sbag0
(g317
g2
Ntp2936
Rp2937
(dp2938
g38
(I21
I2
tp2939
sg322
I00
sg323
I00
sg324
Nsg325
I00
sbag0
(g317
g2
Ntp2940
Rp2941
(dp2942
g38
(I21
I3
tp2943
sg322
I00
sg323
I00
sg324
Nsg325
I00
sbag0
(g317
g2
Ntp2944
Rp2945
(dp2946
g38
(I21
I4
tp2947
sg322
I00
sg323
I00
sg324
Nsg325
I00
sbag0
(g317
g2
Ntp2948
Rp2949
(dp2950
g38
(I21
I5
tp2951
sg322
I00
sg323
I00
sg324
Nsg325
I00
sbag0
(g317
g2
Ntp2952
Rp2953
(dp2954
g38
(I21
I6
tp2955
sg322
I00
sg323
I00
sg324
Nsg325
I00
sbag0
(g317
g2
Ntp2956
Rp2957
(dp2958
g38
(I21
I7
tp2959
sg322
I00
sg323
I00
sg324
Nsg325
I00
sbag0
(g317
g2
Ntp2960
Rp2961
(dp2962
g38
(I21
I8
tp2963
sg322
I00
sg323
I00
sg324
Nsg325
I00
sbag0
(g317
g2
Ntp2964
Rp2965
(dp2966
g38
(I21
I9
tp2967
sg322
I00
sg323
I00
sg324
Nsg325
I00
sbag0
(g317
g2
Ntp2968
Rp2969
(dp2970
g38
(I21
I10
tp2971
sg322
I00
sg323
I00
sg324
Nsg325
I01
sbag0
(g317
g2
Ntp2972
Rp2973
(dp2974
g38
(I21
I11
tp2975
sg322
I00
sg323
I00
sg324
Nsg325
I01
sbag0
(g317
g2
Ntp2976
Rp2977
(dp2978
g38
(I21
I12
tp2979
sg322
I00
sg323
I00
sg324
Nsg325
I01
sbag0
(g317
g2
Ntp2980
Rp2981
(dp2982
g38
(I21
I13
tp2983
sg322
I00
sg323
I00
sg324
Nsg325
I01
sbag0
(g317
g2
Ntp2984
Rp2985
(dp2986
g38
(I21
I14
tp2987
sg322
I00
sg323
I00
sg324
Nsg325
I01
sbag0
(g317
g2
Ntp2988
Rp2989
(dp2990
g38
(I21
I15
tp2991
sg322
I00
sg323
I00
sg324
Nsg325
I01
sbag0
(g317
g2
Ntp2992
Rp2993
(dp2994
g38
(I21
I16
tp2995
sg322
I00
sg323
I00
sg324
Nsg325
I00
sbag0
(g317
g2
Ntp2996
Rp2997
(dp2998
g38
(I21
I17
tp2999
sg322
I00
sg323
I00
sg324
Nsg325
I00
sbag0
(g317
g2
Ntp3000
Rp3001
(dp3002
g38
(I21
I18
tp3003
sg322
I00
sg323
I00
sg324
Nsg325
I00
sbag0
(g317
g2
Ntp3004
Rp3005
(dp3006
g38
(I21
I19
tp3007
sg322
I00
sg323
I00
sg324
Nsg325
I00
sbag0
(g317
g2
Ntp3008
Rp3009
(dp3010
g38
(I21
I20
tp3011
sg322
I00
sg323
I00
sg324
Nsg325
I00
sbag0
(g317
g2
Ntp3012
Rp3013
(dp3014
g38
(I21
I21
tp3015
sg322
I00
sg323
I00
sg324
Nsg325
I00
sbag0
(g317
g2
Ntp3016
Rp3017
(dp3018
g38
(I21
I22
tp3019
sg322
I00
sg323
I00
sg324
Nsg325
I00
sbag0
(g317
g2
Ntp3020
Rp3021
(dp3022
g38
(I21
I23
tp3023
sg322
I00
sg323
I00
sg324
Nsg325
I00
sbag0
(g317
g2
Ntp3024
Rp3025
(dp3026
g38
(I21
I24
tp3027
sg322
I00
sg323
I00
sg324
Nsg325
I00
sbag0
(g317
g2
Ntp3028
Rp3029
(dp3030
g38
(I21
I25
tp3031
sg322
I00
sg323
I00
sg324
Nsg325
I00
sbag0
(g317
g2
Ntp3032
Rp3033
(dp3034
g38
(I21
I26
tp3035
sg322
I00
sg323
I00
sg324
Nsg325
I00
sbag0
(g317
g2
Ntp3036
Rp3037
(dp3038
g38
(I21
I27
tp3039
sg322
I00
sg323
I00
sg324
Nsg325
I01
sbag0
(g317
g2
Ntp3040
Rp3041
(dp3042
g38
(I21
I28
tp3043
sg322
I00
sg323
I00
sg324
g13
sg325
I01
sbag0
(g317
g2
Ntp3044
Rp3045
(dp3046
g38
(I21
I29
tp3047
sg322
I00
sg323
I00
sg324
Nsg325
I01
sbaa(lp3048
g0
(g317
g2
Ntp3049
Rp3050
(dp3051
g38
(I22
I0
tp3052
sg322
I00
sg323
I00
sg324
Nsg325
I00
sbag0
(g317
g2
Ntp3053
Rp3054
(dp3055
g38
(I22
I1
tp3056
sg322
I00
sg323
I00
sg324
Nsg325
I00
sbag0
(g317
g2
Ntp3057
Rp3058
(dp3059
g38
(I22
I2
tp3060
sg322
I00
sg323
I00
sg324
Nsg325
I00
sbag0
(g317
g2
Ntp3061
Rp3062
(dp3063
g38
(I22
I3
tp3064
sg322
I00
sg323
I00
sg324
Nsg325
I00
sbag0
(g317
g2
Ntp3065
Rp3066
(dp3067
g38
(I22
I4
tp3068
sg322
I00
sg323
I00
sg324
Nsg325
I00
sbag0
(g317
g2
Ntp3069
Rp3070
(dp3071
g38
(I22
I5
tp3072
sg322
I00
sg323
I00
sg324
Nsg325
I00
sbag0
(g317
g2
Ntp3073
Rp3074
(dp3075
g38
(I22
I6
tp3076
sg322
I00
sg323
I00
sg324
Nsg325
I00
sbag0
(g317
g2
Ntp3077
Rp3078
(dp3079
g38
(I22
I7
tp3080
sg322
I00
sg323
I00
sg324
Nsg325
I00
sbag0
(g317
g2
Ntp3081
Rp3082
(dp3083
g38
(I22
I8
tp3084
sg322
I00
sg323
I00
sg324
Nsg325
I00
sbag0
(g317
g2
Ntp3085
Rp3086
(dp3087
g38
(I22
I9
tp3088
sg322
I00
sg323
I00
sg324
Nsg325
I00
sbag0
(g317
g2
Ntp3089
Rp3090
(dp3091
g38
(I22
I10
tp3092
sg322
I00
sg323
I00
sg324
Nsg325
I01
sbag0
(g317
g2
Ntp3093
Rp3094
(dp3095
g38
(I22
I11
tp3096
sg322
I00
sg323
I00
sg324
Nsg325
I01
sbag0
(g317
g2
Ntp3097
Rp3098
(dp3099
g38
(I22
I12
tp3100
sg322
I00
sg323
I00
sg324
Nsg325
I01
sbag0
(g317
g2
Ntp3101
Rp3102
(dp3103
g38
(I22
I13
tp3104
sg322
I00
sg323
I00
sg324
Nsg325
I01
sbag0
(g317
g2
Ntp3105
Rp3106
(dp3107
g38
(I22
I14
tp3108
sg322
I00
sg323
I00
sg324
Nsg325
I01
sbag0
(g317
g2
Ntp3109
Rp3110
(dp3111
g38
(I22
I15
tp3112
sg322
I00
sg323
I00
sg324
Nsg325
I01
sbag0
(g317
g2
Ntp3113
Rp3114
(dp3115
g38
(I22
I16
tp3116
sg322
I00
sg323
I00
sg324
Nsg325
I01
sbag0
(g317
g2
Ntp3117
Rp3118
(dp3119
g38
(I22
I17
tp3120
sg322
I00
sg323
I00
sg324
Nsg325
I01
sbag0
(g317
g2
Ntp3121
Rp3122
(dp3123
g38
(I22
I18
tp3124
sg322
I00
sg323
I00
sg324
Nsg325
I01
sbag0
(g317
g2
Ntp3125
Rp3126
(dp3127
g38
(I22
I19
tp3128
sg322
I00
sg323
I00
sg324
Nsg325
I00
sbag0
(g317
g2
Ntp3129
Rp3130
(dp3131
g38
(I22
I20
tp3132
sg322
I00
sg323
I00
sg324
Nsg325
I00
sbag0
(g317
g2
Ntp3133
Rp3134
(dp3135
g38
(I22
I21
tp3136
sg322
I00
sg323
I00
sg324
Nsg325
I00
sbag0
(g317
g2
Ntp3137
Rp3138
(dp3139
g38
(I22
I22
tp3140
sg322
I00
sg323
I00
sg324
Nsg325
I00
sbag0
(g317
g2
Ntp3141
Rp3142
(dp3143
g38
(I22
I23
tp3144
sg322
I00
sg323
I00
sg324
Nsg325
I00
sbag0
(g317
g2
Ntp3145
Rp3146
(dp3147
g38
(I22
I24
tp3148
sg322
I00
sg323
I00
sg324
Nsg325
I00
sbag0
(g317
g2
Ntp3149
Rp3150
(dp3151
g38
(I22
I25
tp3152
sg322
I00
sg323
I00
sg324
Nsg325
I00
sbag0
(g317
g2
Ntp3153
Rp3154
(dp3155
g38
(I22
I26
tp3156
sg322
I00
sg323
I00
sg324
Nsg325
I00
sbag0
(g317
g2
Ntp3157
Rp3158
(dp3159
g38
(I22
I27
tp3160
sg322
I00
sg323
I00
sg324
Nsg325
I00
sbag0
(g317
g2
Ntp3161
Rp3162
(dp3163
g38
(I22
I28
tp3164
sg322
I00
sg323
I00
sg324
g13
sg325
I01
sbag0
(g317
g2
Ntp3165
Rp3166
(dp3167
g38
(I22
I29
tp3168
sg322
I00
sg323
I00
sg324
Nsg325
I00
sbaa(lp3169
g0
(g317
g2
Ntp3170
Rp3171
(dp3172
g38
(I23
I0
tp3173
sg322
I00
sg323
I00
sg324
Nsg325
I00
sbag0
(g317
g2
Ntp3174
Rp3175
(dp3176
g38
(I23
I1
tp3177
sg322
I00
sg323
I00
sg324
Nsg325
I00
sbag0
(g317
g2
Ntp3178
Rp3179
(dp3180
g38
(I23
I2
tp3181
sg322
I00
sg323
I00
sg324
Nsg325
I00
sbag0
(g317
g2
Ntp3182
Rp3183
(dp3184
g38
(I23
I3
tp3185
sg322
I00
sg323
I00
sg324
Nsg325
I00
sbag0
(g317
g2
Ntp3186
Rp3187
(dp3188
g38
(I23
I4
tp3189
sg322
I00
sg323
I00
sg324
Nsg325
I00
sbag0
(g317
g2
Ntp3190
Rp3191
(dp3192
g38
(I23
I5
tp3193
sg322
I00
sg323
I00
sg324
Nsg325
I00
sbag0
(g317
g2
Ntp3194
Rp3195
(dp3196
g38
(I23
I6
tp3197
sg322
I00
sg323
I00
sg324
Nsg325
I00
sbag0
(g317
g2
Ntp3198
Rp3199
(dp3200
g38
(I23
I7
tp3201
sg322
I00
sg323
I00
sg324
Nsg325
I00
sbag0
(g317
g2
Ntp3202
Rp3203
(dp3204
g38
(I23
I8
tp3205
sg322
I00
sg323
I00
sg324
Nsg325
I00
sbag0
(g317
g2
Ntp3206
Rp3207
(dp3208
g38
(I23
I9
tp3209
sg322
I00
sg323
I00
sg324
Nsg325
I00
sbag0
(g317
g2
Ntp3210
Rp3211
(dp3212
g38
(I23
I10
tp3213
sg322
I00
sg323
I00
sg324
Nsg325
I01
sbag0
(g317
g2
Ntp3214
Rp3215
(dp3216
g38
(I23
I11
tp3217
sg322
I00
sg323
I00
sg324
Nsg325
I01
sbag0
(g317
g2
Ntp3218
Rp3219
(dp3220
g38
(I23
I12
tp3221
sg322
I00
sg323
I00
sg324
Nsg325
I01
sbag0
(g317
g2
Ntp3222
Rp3223
(dp3224
g38
(I23
I13
tp3225
sg322
I00
sg323
I00
sg324
Nsg325
I01
sbag0
(g317
g2
Ntp3226
Rp3227
(dp3228
g38
(I23
I14
tp3229
sg322
I00
sg323
I00
sg324
Nsg325
I01
sbag0
(g317
g2
Ntp3230
Rp3231
(dp3232
g38
(I23
I15
tp3233
sg322
I00
sg323
I00
sg324
Nsg325
I01
sbag0
(g317
g2
Ntp3234
Rp3235
(dp3236
g38
(I23
I16
tp3237
sg322
I00
sg323
I00
sg324
Nsg325
I01
sbag0
(g317
g2
Ntp3238
Rp3239
(dp3240
g38
(I23
I17
tp3241
sg322
I00
sg323
I00
sg324
Nsg325
I01
sbag0
(g317
g2
Ntp3242
Rp3243
(dp3244
g38
(I23
I18
tp3245
sg322
I00
sg323
I00
sg324
Nsg325
I01
sbag0
(g317
g2
Ntp3246
Rp3247
(dp3248
g38
(I23
I19
tp3249
sg322
I00
sg323
I00
sg324
Nsg325
I00
sbag0
(g317
g2
Ntp3250
Rp3251
(dp3252
g38
(I23
I20
tp3253
sg322
I00
sg323
I00
sg324
Nsg325
I00
sbag0
(g317
g2
Ntp3254
Rp3255
(dp3256
g38
(I23
I21
tp3257
sg322
I00
sg323
I00
sg324
Nsg325
I00
sbag0
(g317
g2
Ntp3258
Rp3259
(dp3260
g38
(I23
I22
tp3261
sg322
I00
sg323
I00
sg324
Nsg325
I00
sbag0
(g317
g2
Ntp3262
Rp3263
(dp3264
g38
(I23
I23
tp3265
sg322
I00
sg323
I00
sg324
Nsg325
I00
sbag0
(g317
g2
Ntp3266
Rp3267
(dp3268
g38
(I23
I24
tp3269
sg322
I00
sg323
I00
sg324
Nsg325
I00
sbag0
(g317
g2
Ntp3270
Rp3271
(dp3272
g38
(I23
I25
tp3273
sg322
I00
sg323
I00
sg324
Nsg325
I00
sbag0
(g317
g2
Ntp3274
Rp3275
(dp3276
g38
(I23
I26
tp3277
sg322
I00
sg323
I00
sg324
Nsg325
I00
sbag0
(g317
g2
Ntp3278
Rp3279
(dp3280
g38
(I23
I27
tp3281
sg322
I00
sg323
I00
sg324
Nsg325
I00
sbag0
(g317
g2
Ntp3282
Rp3283
(dp3284
g38
(I23
I28
tp3285
sg322
I00
sg323
I00
sg324
Nsg325
I00
sbag0
(g317
g2
Ntp3286
Rp3287
(dp3288
g38
(I23
I29
tp3289
sg322
I00
sg323
I00
sg324
Nsg325
I00
sbaa(lp3290
g0
(g317
g2
Ntp3291
Rp3292
(dp3293
g38
(I24
I0
tp3294
sg322
I00
sg323
I00
sg324
Nsg325
I00
sbag0
(g317
g2
Ntp3295
Rp3296
(dp3297
g38
(I24
I1
tp3298
sg322
I00
sg323
I00
sg324
Nsg325
I00
sbag0
(g317
g2
Ntp3299
Rp3300
(dp3301
g38
(I24
I2
tp3302
sg322
I00
sg323
I00
sg324
Nsg325
I00
sbag0
(g317
g2
Ntp3303
Rp3304
(dp3305
g38
(I24
I3
tp3306
sg322
I00
sg323
I00
sg324
Nsg325
I00
sbag0
(g317
g2
Ntp3307
Rp3308
(dp3309
g38
(I24
I4
tp3310
sg322
I00
sg323
I00
sg324
Nsg325
I00
sbag0
(g317
g2
Ntp3311
Rp3312
(dp3313
g38
(I24
I5
tp3314
sg322
I00
sg323
I00
sg324
Nsg325
I00
sbag0
(g317
g2
Ntp3315
Rp3316
(dp3317
g38
(I24
I6
tp3318
sg322
I00
sg323
I00
sg324
Nsg325
I00
sbag0
(g317
g2
Ntp3319
Rp3320
(dp3321
g38
(I24
I7
tp3322
sg322
I00
sg323
I00
sg324
Nsg325
I00
sbag0
(g317
g2
Ntp3323
Rp3324
(dp3325
g38
(I24
I8
tp3326
sg322
I00
sg323
I00
sg324
Nsg325
I00
sbag0
(g317
g2
Ntp3327
Rp3328
(dp3329
g38
(I24
I9
tp3330
sg322
I00
sg323
I00
sg324
Nsg325
I00
sbag0
(g317
g2
Ntp3331
Rp3332
(dp3333
g38
(I24
I10
tp3334
sg322
I00
sg323
I00
sg324
Nsg325
I01
sbag0
(g317
g2
Ntp3335
Rp3336
(dp3337
g38
(I24
I11
tp3338
sg322
I00
sg323
I00
sg324
g49
sg325
I01
sbag0
(g317
g2
Ntp3339
Rp3340
(dp3341
g38
(I24
I12
tp3342
sg322
I00
sg323
I00
sg324
Nsg325
I01
sbag0
(g317
g2
Ntp3343
Rp3344
(dp3345
g38
(I24
I13
tp3346
sg322
I00
sg323
I00
sg324
Nsg325
I01
sbag0
(g317
g2
Ntp3347
Rp3348
(dp3349
g38
(I24
I14
tp3350
sg322
I00
sg323
I00
sg324
Nsg325
I01
sbag0
(g317
g2
Ntp3351
Rp3352
(dp3353
g38
(I24
I15
tp3354
sg322
I00
sg323
I00
sg324
Nsg325
I01
sbag0
(g317
g2
Ntp3355
Rp3356
(dp3357
g38
(I24
I16
tp3358
sg322
I00
sg323
I00
sg324
Nsg325
I01
sbag0
(g317
g2
Ntp3359
Rp3360
(dp3361
g38
(I24
I17
tp3362
sg322
I00
sg323
I00
sg324
Nsg325
I01
sbag0
(g317
g2
Ntp3363
Rp3364
(dp3365
g38
(I24
I18
tp3366
sg322
I00
sg323
I00
sg324
Nsg325
I01
sbag0
(g317
g2
Ntp3367
Rp3368
(dp3369
g38
(I24
I19
tp3370
sg322
I00
sg323
I00
sg324
Nsg325
I00
sbag0
(g317
g2
Ntp3371
Rp3372
(dp3373
g38
(I24
I20
tp3374
sg322
I00
sg323
I00
sg324
Nsg325
I00
sbag0
(g317
g2
Ntp3375
Rp3376
(dp3377
g38
(I24
I21
tp3378
sg322
I00
sg323
I00
sg324
Nsg325
I00
sbag0
(g317
g2
Ntp3379
Rp3380
(dp3381
g38
(I24
I22
tp3382
sg322
I00
sg323
I00
sg324
Nsg325
I00
sbag0
(g317
g2
Ntp3383
Rp3384
(dp3385
g38
(I24
I23
tp3386
sg322
I00
sg323
I00
sg324
Nsg325
I00
sbag0
(g317
g2
Ntp3387
Rp3388
(dp3389
g38
(I24
I24
tp3390
sg322
I00
sg323
I00
sg324
Nsg325
I00
sbag0
(g317
g2
Ntp3391
Rp3392
(dp3393
g38
(I24
I25
tp3394
sg322
I00
sg323
I00
sg324
Nsg325
I00
sbag0
(g317
g2
Ntp3395
Rp3396
(dp3397
g38
(I24
I26
tp3398
sg322
I00
sg323
I00
sg324
Nsg325
I00
sbag0
(g317
g2
Ntp3399
Rp3400
(dp3401
g38
(I24
I27
tp3402
sg322
I00
sg323
I00
sg324
Nsg325
I00
sbag0
(g317
g2
Ntp3403
Rp3404
(dp3405
g38
(I24
I28
tp3406
sg322
I00
sg323
I00
sg324
Nsg325
I00
sbag0
(g317
g2
Ntp3407
Rp3408
(dp3409
g38
(I24
I29
tp3410
sg322
I00
sg323
I00
sg324
Nsg325
I00
sbaa(lp3411
g0
(g317
g2
Ntp3412
Rp3413
(dp3414
g38
(I25
I0
tp3415
sg322
I00
sg323
I00
sg324
Nsg325
I00
sbag0
(g317
g2
Ntp3416
Rp3417
(dp3418
g38
(I25
I1
tp3419
sg322
I00
sg323
I00
sg324
Nsg325
I00
sbag0
(g317
g2
Ntp3420
Rp3421
(dp3422
g38
(I25
I2
tp3423
sg322
I00
sg323
I00
sg324
Nsg325
I00
sbag0
(g317
g2
Ntp3424
Rp3425
(dp3426
g38
(I25
I3
tp3427
sg322
I00
sg323
I00
sg324
Nsg325
I00
sbag0
(g317
g2
Ntp3428
Rp3429
(dp3430
g38
(I25
I4
tp3431
sg322
I00
sg323
I00
sg324
Nsg325
I00
sbag0
(g317
g2
Ntp3432
Rp3433
(dp3434
g38
(I25
I5
tp3435
sg322
I00
sg323
I00
sg324
Nsg325
I00
sbag0
(g317
g2
Ntp3436
Rp3437
(dp3438
g38
(I25
I6
tp3439
sg322
I00
sg323
I00
sg324
Nsg325
I00
sbag0
(g317
g2
Ntp3440
Rp3441
(dp3442
g38
(I25
I7
tp3443
sg322
I00
sg323
I00
sg324
Nsg325
I00
sbag0
(g317
g2
Ntp3444
Rp3445
(dp3446
g38
(I25
I8
tp3447
sg322
I00
sg323
I00
sg324
Nsg325
I00
sbag0
(g317
g2
Ntp3448
Rp3449
(dp3450
g38
(I25
I9
tp3451
sg322
I00
sg323
I00
sg324
Nsg325
I00
sbag0
(g317
g2
Ntp3452
Rp3453
(dp3454
g38
(I25
I10
tp3455
sg322
I00
sg323
I00
sg324
Nsg325
I01
sbag0
(g317
g2
Ntp3456
Rp3457
(dp3458
g38
(I25
I11
tp3459
sg322
I00
sg323
I00
sg324
g49
sg325
I01
sbag0
(g317
g2
Ntp3460
Rp3461
(dp3462
g38
(I25
I12
tp3463
sg322
I00
sg323
I00
sg324
g61
sg325
I01
sbag0
(g317
g2
Ntp3464
Rp3465
(dp3466
g38
(I25
I13
tp3467
sg322
I00
sg323
I00
sg324
g80
sg325
I01
sbag0
(g317
g2
Ntp3468
Rp3469
(dp3470
g38
(I25
I14
tp3471
sg322
I00
sg323
I00
sg324
g90
sg325
I01
sbag0
(g317
g2
Ntp3472
Rp3473
(dp3474
g38
(I25
I15
tp3475
sg322
I00
sg323
I00
sg324
Nsg325
I01
sbag0
(g317
g2
Ntp3476
Rp3477
(dp3478
g38
(I25
I16
tp3479
sg322
I01
sg323
I00
sg324
Nsg325
I01
sbag0
(g317
g2
Ntp3480
Rp3481
(dp3482
g38
(I25
I17
tp3483
sg322
I01
sg323
I00
sg324
Nsg325
I01
sbag0
(g317
g2
Ntp3484
Rp3485
(dp3486
g38
(I25
I18
tp3487
sg322
I01
sg323
I00
sg324
Nsg325
I01
sbag0
(g317
g2
Ntp3488
Rp3489
(dp3490
g38
(I25
I19
tp3491
sg322
I01
sg323
I00
sg324
Nsg325
I01
sbag0
(g317
g2
Ntp3492
Rp3493
(dp3494
g38
(I25
I20
tp3495
sg322
I01
sg323
I00
sg324
Nsg325
I01
sbag0
(g317
g2
Ntp3496
Rp3497
(dp3498
g38
(I25
I21
tp3499
sg322
I01
sg323
I00
sg324
Nsg325
I01
sbag0
(g317
g2
Ntp3500
Rp3501
(dp3502
g38
(I25
I22
tp3503
sg322
I00
sg323
I00
sg324
Nsg325
I00
sbag0
(g317
g2
Ntp3504
Rp3505
(dp3506
g38
(I25
I23
tp3507
sg322
I00
sg323
I00
sg324
Nsg325
I00
sbag0
(g317
g2
Ntp3508
Rp3509
(dp3510
g38
(I25
I24
tp3511
sg322
I00
sg323
I00
sg324
Nsg325
I00
sbag0
(g317
g2
Ntp3512
Rp3513
(dp3514
g38
(I25
I25
tp3515
sg322
I00
sg323
I00
sg324
Nsg325
I00
sbag0
(g317
g2
Ntp3516
Rp3517
(dp3518
g38
(I25
I26
tp3519
sg322
I00
sg323
I00
sg324
Nsg325
I00
sbag0
(g317
g2
Ntp3520
Rp3521
(dp3522
g38
(I25
I27
tp3523
sg322
I00
sg323
I00
sg324
Nsg325
I00
sbag0
(g317
g2
Ntp3524
Rp3525
(dp3526
g38
(I25
I28
tp3527
sg322
I00
sg323
I00
sg324
Nsg325
I00
sbag0
(g317
g2
Ntp3528
Rp3529
(dp3530
g38
(I25
I29
tp3531
sg322
I00
sg323
I00
sg324
Nsg325
I00
sbaa(lp3532
g0
(g317
g2
Ntp3533
Rp3534
(dp3535
g38
(I26
I0
tp3536
sg322
I00
sg323
I00
sg324
Nsg325
I00
sbag0
(g317
g2
Ntp3537
Rp3538
(dp3539
g38
(I26
I1
tp3540
sg322
I00
sg323
I00
sg324
Nsg325
I00
sbag0
(g317
g2
Ntp3541
Rp3542
(dp3543
g38
(I26
I2
tp3544
sg322
I00
sg323
I00
sg324
Nsg325
I00
sbag0
(g317
g2
Ntp3545
Rp3546
(dp3547
g38
(I26
I3
tp3548
sg322
I00
sg323
I00
sg324
Nsg325
I00
sbag0
(g317
g2
Ntp3549
Rp3550
(dp3551
g38
(I26
I4
tp3552
sg322
I00
sg323
I00
sg324
Nsg325
I00
sbag0
(g317
g2
Ntp3553
Rp3554
(dp3555
g38
(I26
I5
tp3556
sg322
I00
sg323
I00
sg324
Nsg325
I00
sbag0
(g317
g2
Ntp3557
Rp3558
(dp3559
g38
(I26
I6
tp3560
sg322
I00
sg323
I00
sg324
Nsg325
I00
sbag0
(g317
g2
Ntp3561
Rp3562
(dp3563
g38
(I26
I7
tp3564
sg322
I00
sg323
I00
sg324
Nsg325
I00
sbag0
(g317
g2
Ntp3565
Rp3566
(dp3567
g38
(I26
I8
tp3568
sg322
I00
sg323
I00
sg324
Nsg325
I00
sbag0
(g317
g2
Ntp3569
Rp3570
(dp3571
g38
(I26
I9
tp3572
sg322
I00
sg323
I00
sg324
Nsg325
I00
sbag0
(g317
g2
Ntp3573
Rp3574
(dp3575
g38
(I26
I10
tp3576
sg322
I00
sg323
I00
sg324
Nsg325
I01
sbag0
(g317
g2
Ntp3577
Rp3578
(dp3579
g38
(I26
I11
tp3580
sg322
I00
sg323
I00
sg324
g49
sg325
I01
sbag0
(g317
g2
Ntp3581
Rp3582
(dp3583
g38
(I26
I12
tp3584
sg322
I00
sg323
I00
sg324
g61
sg325
I01
sbag0
(g317
g2
Ntp3585
Rp3586
(dp3587
g38
(I26
I13
tp3588
sg322
I00
sg323
I00
sg324
g80
sg325
I01
sbag0
(g317
g2
Ntp3589
Rp3590
(dp3591
g38
(I26
I14
tp3592
sg322
I00
sg323
I00
sg324
g90
sg325
I01
sbag0
(g317
g2
Ntp3593
Rp3594
(dp3595
g38
(I26
I15
tp3596
sg322
I00
sg323
I00
sg324
g101
sg325
I01
sbag0
(g317
g2
Ntp3597
Rp3598
(dp3599
g38
(I26
I16
tp3600
sg322
I01
sg323
I00
sg324
g117
sg325
I01
sbag0
(g317
g2
Ntp3601
Rp3602
(dp3603
g38
(I26
I17
tp3604
sg322
I01
sg323
I00
sg324
g133
sg325
I01
sbag0
(g317
g2
Ntp3605
Rp3606
(dp3607
g38
(I26
I18
tp3608
sg322
I01
sg323
I00
sg324
Nsg325
I01
sbag0
(g317
g2
Ntp3609
Rp3610
(dp3611
g38
(I26
I19
tp3612
sg322
I01
sg323
I00
sg324
Nsg325
I01
sbag0
(g317
g2
Ntp3613
Rp3614
(dp3615
g38
(I26
I20
tp3616
sg322
I01
sg323
I00
sg324
Nsg325
I01
sbag0
(g317
g2
Ntp3617
Rp3618
(dp3619
g38
(I26
I21
tp3620
sg322
I01
sg323
I00
sg324
Nsg325
I01
sbag0
(g317
g2
Ntp3621
Rp3622
(dp3623
g38
(I26
I22
tp3624
sg322
I00
sg323
I00
sg324
Nsg325
I00
sbag0
(g317
g2
Ntp3625
Rp3626
(dp3627
g38
(I26
I23
tp3628
sg322
I00
sg323
I00
sg324
Nsg325
I00
sbag0
(g317
g2
Ntp3629
Rp3630
(dp3631
g38
(I26
I24
tp3632
sg322
I00
sg323
I00
sg324
Nsg325
I00
sbag0
(g317
g2
Ntp3633
Rp3634
(dp3635
g38
(I26
I25
tp3636
sg322
I00
sg323
I00
sg324
Nsg325
I00
sbag0
(g317
g2
Ntp3637
Rp3638
(dp3639
g38
(I26
I26
tp3640
sg322
I00
sg323
I00
sg324
Nsg325
I00
sbag0
(g317
g2
Ntp3641
Rp3642
(dp3643
g38
(I26
I27
tp3644
sg322
I00
sg323
I00
sg324
Nsg325
I00
sbag0
(g317
g2
Ntp3645
Rp3646
(dp3647
g38
(I26
I28
tp3648
sg322
I00
sg323
I00
sg324
Nsg325
I00
sbag0
(g317
g2
Ntp3649
Rp3650
(dp3651
g38
(I26
I29
tp3652
sg322
I00
sg323
I00
sg324
Nsg325
I00
sbaa(lp3653
g0
(g317
g2
Ntp3654
Rp3655
(dp3656
g38
(I27
I0
tp3657
sg322
I00
sg323
I00
sg324
Nsg325
I00
sbag0
(g317
g2
Ntp3658
Rp3659
(dp3660
g38
(I27
I1
tp3661
sg322
I00
sg323
I00
sg324
Nsg325
I00
sbag0
(g317
g2
Ntp3662
Rp3663
(dp3664
g38
(I27
I2
tp3665
sg322
I00
sg323
I00
sg324
Nsg325
I00
sbag0
(g317
g2
Ntp3666
Rp3667
(dp3668
g38
(I27
I3
tp3669
sg322
I00
sg323
I00
sg324
Nsg325
I00
sbag0
(g317
g2
Ntp3670
Rp3671
(dp3672
g38
(I27
I4
tp3673
sg322
I00
sg323
I00
sg324
Nsg325
I00
sbag0
(g317
g2
Ntp3674
Rp3675
(dp3676
g38
(I27
I5
tp3677
sg322
I00
sg323
I00
sg324
Nsg325
I00
sbag0
(g317
g2
Ntp3678
Rp3679
(dp3680
g38
(I27
I6
tp3681
sg322
I00
sg323
I00
sg324
Nsg325
I00
sbag0
(g317
g2
Ntp3682
Rp3683
(dp3684
g38
(I27
I7
tp3685
sg322
I00
sg323
I00
sg324
Nsg325
I00
sbag0
(g317
g2
Ntp3686
Rp3687
(dp3688
g38
(I27
I8
tp3689
sg322
I00
sg323
I00
sg324
Nsg325
I00
sbag0
(g317
g2
Ntp3690
Rp3691
(dp3692
g38
(I27
I9
tp3693
sg322
I00
sg323
I00
sg324
Nsg325
I00
sbag0
(g317
g2
Ntp3694
Rp3695
(dp3696
g38
(I27
I10
tp3697
sg322
I00
sg323
I00
sg324
Nsg325
I01
sbag0
(g317
g2
Ntp3698
Rp3699
(dp3700
g38
(I27
I11
tp3701
sg322
I00
sg323
I00
sg324
g49
sg325
I01
sbag0
(g317
g2
Ntp3702
Rp3703
(dp3704
g38
(I27
I12
tp3705
sg322
I00
sg323
I00
sg324
g61
sg325
I01
sbag0
(g317
g2
Ntp3706
Rp3707
(dp3708
g38
(I27
I13
tp3709
sg322
I00
sg323
I00
sg324
g80
sg325
I01
sbag0
(g317
g2
Ntp3710
Rp3711
(dp3712
g38
(I27
I14
tp3713
sg322
I00
sg323
I00
sg324
g90
sg325
I01
sbag0
(g317
g2
Ntp3714
Rp3715
(dp3716
g38
(I27
I15
tp3717
sg322
I00
sg323
I00
sg324
g101
sg325
I01
sbag0
(g317
g2
Ntp3718
Rp3719
(dp3720
g38
(I27
I16
tp3721
sg322
I01
sg323
I00
sg324
g117
sg325
I01
sbag0
(g317
g2
Ntp3722
Rp3723
(dp3724
g38
(I27
I17
tp3725
sg322
I01
sg323
I00
sg324
g133
sg325
I01
sbag0
(g317
g2
Ntp3726
Rp3727
(dp3728
g38
(I27
I18
tp3729
sg322
I01
sg323
I00
sg324
g143
sg325
I01
sbag0
(g317
g2
Ntp3730
Rp3731
(dp3732
g38
(I27
I19
tp3733
sg322
I01
sg323
I00
sg324
g157
sg325
I01
sbag0
(g317
g2
Ntp3734
Rp3735
(dp3736
g38
(I27
I20
tp3737
sg322
I01
sg323
I00
sg324
Nsg325
I01
sbag0
(g317
g2
Ntp3738
Rp3739
(dp3740
g38
(I27
I21
tp3741
sg322
I01
sg323
I00
sg324
Nsg325
I01
sbag0
(g317
g2
Ntp3742
Rp3743
(dp3744
g38
(I27
I22
tp3745
sg322
I00
sg323
I00
sg324
Nsg325
I00
sbag0
(g317
g2
Ntp3746
Rp3747
(dp3748
g38
(I27
I23
tp3749
sg322
I00
sg323
I00
sg324
Nsg325
I00
sbag0
(g317
g2
Ntp3750
Rp3751
(dp3752
g38
(I27
I24
tp3753
sg322
I00
sg323
I00
sg324
Nsg325
I00
sbag0
(g317
g2
Ntp3754
Rp3755
(dp3756
g38
(I27
I25
tp3757
sg322
I00
sg323
I00
sg324
Nsg325
I00
sbag0
(g317
g2
Ntp3758
Rp3759
(dp3760
g38
(I27
I26
tp3761
sg322
I00
sg323
I00
sg324
Nsg325
I00
sbag0
(g317
g2
Ntp3762
Rp3763
(dp3764
g38
(I27
I27
tp3765
sg322
I00
sg323
I00
sg324
Nsg325
I00
sbag0
(g317
g2
Ntp3766
Rp3767
(dp3768
g38
(I27
I28
tp3769
sg322
I00
sg323
I00
sg324
Nsg325
I00
sbag0
(g317
g2
Ntp3770
Rp3771
(dp3772
g38
(I27
I29
tp3773
sg322
I00
sg323
I00
sg324
Nsg325
I00
sbaa(lp3774
g0
(g317
g2
Ntp3775
Rp3776
(dp3777
g38
(I28
I0
tp3778
sg322
I00
sg323
I00
sg324
Nsg325
I00
sbag0
(g317
g2
Ntp3779
Rp3780
(dp3781
g38
(I28
I1
tp3782
sg322
I00
sg323
I00
sg324
Nsg325
I00
sbag0
(g317
g2
Ntp3783
Rp3784
(dp3785
g38
(I28
I2
tp3786
sg322
I00
sg323
I00
sg324
Nsg325
I00
sbag0
(g317
g2
Ntp3787
Rp3788
(dp3789
g38
(I28
I3
tp3790
sg322
I00
sg323
I00
sg324
Nsg325
I00
sbag0
(g317
g2
Ntp3791
Rp3792
(dp3793
g38
(I28
I4
tp3794
sg322
I00
sg323
I00
sg324
Nsg325
I00
sbag0
(g317
g2
Ntp3795
Rp3796
(dp3797
g38
(I28
I5
tp3798
sg322
I00
sg323
I00
sg324
Nsg325
I00
sbag0
(g317
g2
Ntp3799
Rp3800
(dp3801
g38
(I28
I6
tp3802
sg322
I00
sg323
I00
sg324
Nsg325
I00
sbag0
(g317
g2
Ntp3803
Rp3804
(dp3805
g38
(I28
I7
tp3806
sg322
I00
sg323
I00
sg324
Nsg325
I00
sbag0
(g317
g2
Ntp3807
Rp3808
(dp3809
g38
(I28
I8
tp3810
sg322
I00
sg323
I00
sg324
Nsg325
I00
sbag0
(g317
g2
Ntp3811
Rp3812
(dp3813
g38
(I28
I9
tp3814
sg322
I00
sg323
I00
sg324
Nsg325
I00
sbag0
(g317
g2
Ntp3815
Rp3816
(dp3817
g38
(I28
I10
tp3818
sg322
I00
sg323
I00
sg324
Nsg325
I01
sbag0
(g317
g2
Ntp3819
Rp3820
(dp3821
g38
(I28
I11
tp3822
sg322
I00
sg323
I00
sg324
g49
sg325
I01
sbag0
(g317
g2
Ntp3823
Rp3824
(dp3825
g38
(I28
I12
tp3826
sg322
I00
sg323
I00
sg324
g61
sg325
I01
sbag0
(g317
g2
Ntp3827
Rp3828
(dp3829
g38
(I28
I13
tp3830
sg322
I00
sg323
I00
sg324
g80
sg325
I01
sbag0
(g317
g2
Ntp3831
Rp3832
(dp3833
g38
(I28
I14
tp3834
sg322
I00
sg323
I00
sg324
g90
sg325
I01
sbag0
(g317
g2
Ntp3835
Rp3836
(dp3837
g38
(I28
I15
tp3838
sg322
I00
sg323
I00
sg324
g101
sg325
I01
sbag0
(g317
g2
Ntp3839
Rp3840
(dp3841
g38
(I28
I16
tp3842
sg322
I01
sg323
I00
sg324
g117
sg325
I01
sbag0
(g317
g2
Ntp3843
Rp3844
(dp3845
g38
(I28
I17
tp3846
sg322
I01
sg323
I00
sg324
g133
sg325
I01
sbag0
(g317
g2
Ntp3847
Rp3848
(dp3849
g38
(I28
I18
tp3850
sg322
I01
sg323
I00
sg324
g143
sg325
I01
sbag0
(g317
g2
Ntp3851
Rp3852
(dp3853
g38
(I28
I19
tp3854
sg322
I01
sg323
I00
sg324
g157
sg325
I01
sbag0
(g317
g2
Ntp3855
Rp3856
(dp3857
g38
(I28
I20
tp3858
sg322
I01
sg323
I00
sg324
Nsg325
I01
sbag0
(g317
g2
Ntp3859
Rp3860
(dp3861
g38
(I28
I21
tp3862
sg322
I01
sg323
I00
sg324
Nsg325
I01
sbag0
(g317
g2
Ntp3863
Rp3864
(dp3865
g38
(I28
I22
tp3866
sg322
I00
sg323
I00
sg324
Nsg325
I00
sbag0
(g317
g2
Ntp3867
Rp3868
(dp3869
g38
(I28
I23
tp3870
sg322
I00
sg323
I00
sg324
Nsg325
I00
sbag0
(g317
g2
Ntp3871
Rp3872
(dp3873
g38
(I28
I24
tp3874
sg322
I00
sg323
I00
sg324
Nsg325
I00
sbag0
(g317
g2
Ntp3875
Rp3876
(dp3877
g38
(I28
I25
tp3878
sg322
I00
sg323
I00
sg324
Nsg325
I00
sbag0
(g317
g2
Ntp3879
Rp3880
(dp3881
g38
(I28
I26
tp3882
sg322
I00
sg323
I00
sg324
Nsg325
I00
sbag0
(g317
g2
Ntp3883
Rp3884
(dp3885
g38
(I28
I27
tp3886
sg322
I00
sg323
I00
sg324
Nsg325
I00
sbag0
(g317
g2
Ntp3887
Rp3888
(dp3889
g38
(I28
I28
tp3890
sg322
I00
sg323
I00
sg324
Nsg325
I00
sbag0
(g317
g2
Ntp3891
Rp3892
(dp3893
g38
(I28
I29
tp3894
sg322
I00
sg323
I00
sg324
Nsg325
I00
sbaa(lp3895
g0
(g317
g2
Ntp3896
Rp3897
(dp3898
g38
(I29
I0
tp3899
sg322
I00
sg323
I00
sg324
Nsg325
I00
sbag0
(g317
g2
Ntp3900
Rp3901
(dp3902
g38
(I29
I1
tp3903
sg322
I00
sg323
I00
sg324
Nsg325
I00
sbag0
(g317
g2
Ntp3904
Rp3905
(dp3906
g38
(I29
I2
tp3907
sg322
I00
sg323
I00
sg324
Nsg325
I00
sbag0
(g317
g2
Ntp3908
Rp3909
(dp3910
g38
(I29
I3
tp3911
sg322
I00
sg323
I00
sg324
Nsg325
I00
sbag0
(g317
g2
Ntp3912
Rp3913
(dp3914
g38
(I29
I4
tp3915
sg322
I00
sg323
I00
sg324
Nsg325
I00
sbag0
(g317
g2
Ntp3916
Rp3917
(dp3918
g38
(I29
I5
tp3919
sg322
I00
sg323
I00
sg324
Nsg325
I00
sbag0
(g317
g2
Ntp3920
Rp3921
(dp3922
g38
(I29
I6
tp3923
sg322
I00
sg323
I00
sg324
Nsg325
I00
sbag0
(g317
g2
Ntp3924
Rp3925
(dp3926
g38
(I29
I7
tp3927
sg322
I00
sg323
I00
sg324
Nsg325
I00
sbag0
(g317
g2
Ntp3928
Rp3929
(dp3930
g38
(I29
I8
tp3931
sg322
I00
sg323
I00
sg324
Nsg325
I00
sbag0
(g317
g2
Ntp3932
Rp3933
(dp3934
g38
(I29
I9
tp3935
sg322
I00
sg323
I00
sg324
Nsg325
I01
sbag0
(g317
g2
Ntp3936
Rp3937
(dp3938
g38
(I29
I10
tp3939
sg322
I00
sg323
I00
sg324
(iBase
Base
p3940
(dp3941
g18
g19
sg26
I00
sg35
(lp3942
I2
aI2
aI2
aI2
aI2
aI2
aI2
aI2
aI2
aI2
asg370
(lp3943
(I29
I10
tp3944
a(I29
I11
tp3945
a(I29
I12
tp3946
a(I29
I13
tp3947
a(I29
I14
tp3948
a(I29
I15
tp3949
a(I29
I16
tp3950
a(I29
I17
tp3951
a(I29
I18
tp3952
a(I29
I19
tp3953
asbsg325
I00
sbag0
(g317
g2
Ntp3954
Rp3955
(dp3956
g38
(I29
I11
tp3957
sg322
I00
sg323
I00
sg324
g3940
sg325
I00
sbag0
(g317
g2
Ntp3958
Rp3959
(dp3960
g38
(I29
I12
tp3961
sg322
I00
sg323
I00
sg324
g3940
sg325
I00
sbag0
(g317
g2
Ntp3962
Rp3963
(dp3964
g38
(I29
I13
tp3965
sg322
I00
sg323
I00
sg324
g3940
sg325
I00
sbag0
(g317
g2
Ntp3966
Rp3967
(dp3968
g38
(I29
I14
tp3969
sg322
I00
sg323
I00
sg324
g3940
sg325
I00
sbag0
(g317
g2
Ntp3970
Rp3971
(dp3972
g38
(I29
I15
tp3973
sg322
I00
sg323
I00
sg324
g3940
sg325
I00
sbag0
(g317
g2
Ntp3974
Rp3975
(dp3976
g38
(I29
I16
tp3977
sg322
I01
sg323
I00
sg324
g3940
sg325
I01
sbag0
(g317
g2
Ntp3978
Rp3979
(dp3980
g38
(I29
I17
tp3981
sg322
I01
sg323
I00
sg324
g3940
sg325
I01
sbag0
(g317
g2
Ntp3982
Rp3983
(dp3984
g38
(I29
I18
tp3985
sg322
I01
sg323
I00
sg324
g3940
sg325
I01
sbag0
(g317
g2
Ntp3986
Rp3987
(dp3988
g38
(I29
I19
tp3989
sg322
I01
sg323
I00
sg324
g3940
sg325
I01
sbag0
(g317
g2
Ntp3990
Rp3991
(dp3992
g38
(I29
I20
tp3993
sg322
I01
sg323
I00
sg324
Nsg325
I01
sbag0
(g317
g2
Ntp3994
Rp3995
(dp3996
g38
(I29
I21
tp3997
sg322
I01
sg323
I00
sg324
Nsg325
I01
sbag0
(g317
g2
Ntp3998
Rp3999
(dp4000
g38
(I29
I22
tp4001
sg322
I00
sg323
I00
sg324
Nsg325
I00
sbag0
(g317
g2
Ntp4002
Rp4003
(dp4004
g38
(I29
I23
tp4005
sg322
I00
sg323
I00
sg324
Nsg325
I00
sbag0
(g317
g2
Ntp4006
Rp4007
(dp4008
g38
(I29
I24
tp4009
sg322
I00
sg323
I00
sg324
Nsg325
I00
sbag0
(g317
g2
Ntp4010
Rp4011
(dp4012
g38
(I29
I25
tp4013
sg322
I00
sg323
I00
sg324
Nsg325
I00
sbag0
(g317
g2
Ntp4014
Rp4015
(dp4016
g38
(I29
I26
tp4017
sg322
I00
sg323
I00
sg324
Nsg325
I00
sbag0
(g317
g2
Ntp4018
Rp4019
(dp4020
g38
(I29
I27
tp4021
sg322
I00
sg323
I00
sg324
Nsg325
I00
sbag0
(g317
g2
Ntp4022
Rp4023
(dp4024
g38
(I29
I28
tp4025
sg322
I00
sg323
I00
sg324
Nsg325
I00
sbag0
(g317
g2
Ntp4026
Rp4027
(dp4028
g38
(I29
I29
tp4029
sg322
I00
sg323
I00
sg324
Nsg325
I00
sbaasbsS'player2'
p4030
g0
(cPlayerState
PlayerState
p4031
g2
Ntp4032
Rp4033
(dp4034
S'username'
p4035
S'shanna; Wins; 0 ; Loses; 0'
p4036
sg18
g182
sS'shipList'
p4037
(lp4038
g180
ag195
ag206
ag222
ag232
ag242
ag254
ag269
ag278
ag290
ag299
asS'base'
p4039
g366
sS'you'
p4040
I01
sbsS'player'
p4041
I00
sS'player1'
p4042
g0
(g4031
g2
Ntp4043
Rp4044
(dp4045
g4035
S"'ayo; Wins; 0 ; Loses; 0'"
p4046
sg18
g19
sg4037
(lp4047
g13
ag49
ag61
ag80
ag90
ag101
ag117
ag133
ag143
ag157
ag167
asg4039
g3940
sg4040
I00
sbsS'coral'
p4048
(lp4049
(I10
I3
tp4050
a(I13
I17
tp4051
a(I10
I5
tp4052
a(I12
I19
tp4053
a(I13
I4
tp4054
a(I10
I22
tp4055
a(I12
I26
tp4056
a(I12
I5
tp4057
a(I13
I6
tp4058
a(I10
I17
tp4059
a(I13
I8
tp4060
a(I14
I3
tp4061
a(I15
I12
tp4062
a(I18
I25
tp4063
a(I19
I26
tp4064
a(I19
I10
tp4065
a(I17
I18
tp4066
a(I17
I20
tp4067
a(I18
I15
tp4068
a(I18
I22
tp4069
a(I19
I7
tp4070
a(I16
I5
tp4071
a(I19
I12
tp4072
a(I17
I3
tp4073
asb.